

Microchip MPLAB XC8 Assembler V2.45 build 20230818022343 
                                                                                               Tue Oct 08 12:45:10 2024

Microchip MPLAB XC8 C Compiler v2.45 (Free license) build 20230818022343 Og1 
     1                           	processor	18F4620
     2                           	fnconf	rparam,??,?,0
     3                           	pagewidth 120
     4                           	opt	flic
     5                           	psect	idataCOMRAM,global,class=CODE,delta=1,noexec
     6                           	psect	idataBANK0,global,class=CODE,delta=1,noexec
     7                           	psect	idataBANK1,global,class=CODE,delta=1,noexec
     8                           	psect	smallconst,global,reloc=2,class=SMALLCONST,delta=1,noexec
     9                           	psect	cinit,global,reloc=2,class=CODE,delta=1
    10                           	psect	bssCOMRAM,global,class=COMRAM,space=1,delta=1,lowdata,noexec
    11                           	psect	dataCOMRAM,global,class=COMRAM,space=1,delta=1,lowdata,noexec
    12                           	psect	bssBANK0,global,class=BANK0,space=1,delta=1,lowdata,noexec
    13                           	psect	dataBANK0,global,class=BANK0,space=1,delta=1,lowdata,noexec
    14                           	psect	dataBANK1,global,class=BANK1,space=1,delta=1,lowdata,noexec
    15                           	psect	cstackCOMRAM,global,class=COMRAM,space=1,delta=1,lowdata,noexec
    16                           	psect	text0,global,reloc=2,class=CODE,delta=1
    17                           	psect	text1,global,reloc=2,class=CODE,delta=1
    18                           	psect	text2,global,reloc=2,class=CODE,delta=1
    19                           	psect	text3,global,reloc=2,class=CODE,delta=1
    20                           	psect	text4,global,reloc=2,class=CODE,delta=1,group=1
    21                           	psect	text5,global,reloc=2,class=CODE,delta=1,group=1
    22                           	psect	text6,global,reloc=2,class=CODE,delta=1,group=1
    23                           	psect	text7,global,reloc=2,class=CODE,delta=1,group=1
    24                           	psect	text8,global,reloc=2,class=CODE,delta=1
    25                           	psect	text9,global,reloc=2,class=CODE,delta=1
    26                           	psect	text10,global,reloc=2,class=CODE,delta=1
    27                           	psect	text11,global,reloc=2,class=CODE,delta=1
    28                           	psect	text12,global,reloc=2,class=CODE,delta=1
    29                           	psect	text13,global,reloc=2,class=CODE,delta=1
    30                           	psect	text14,global,reloc=2,class=CODE,delta=1
    31                           	psect	text15,global,reloc=2,class=CODE,delta=1
    32                           	psect	text16,global,reloc=2,class=CODE,delta=1
    33                           	psect	intcode,global,reloc=2,class=CODE,delta=1
    34                           	psect	intcode_body,global,reloc=2,class=CODE,delta=1
    35                           	psect	text18,global,reloc=2,class=CODE,delta=1
    36                           	psect	text19,global,reloc=2,class=CODE,delta=1
    37                           	psect	text20,global,reloc=2,class=CODE,delta=1
    38                           	psect	text21,global,reloc=2,class=CODE,delta=1
    39                           	psect	text22,global,reloc=2,class=CODE,delta=1
    40                           	psect	text23,global,reloc=2,class=CODE,delta=1
    41                           	psect	text24,global,reloc=2,class=CODE,delta=1
    42                           	psect	text25,global,reloc=2,class=CODE,delta=1
    43                           	psect	intsave_regs,global,class=BIGRAM,space=1,delta=1,noexec
    44                           	psect	rparam,global,class=COMRAM,space=1,delta=1,noexec
    45                           	psect	temp,global,ovrld,common,class=COMRAM,space=1,delta=1
    46                           	psect	config,global,abs,ovrld,class=CONFIG,space=4,delta=1,noexec
    47   000000                     
    48                           ; Generated 18/08/2023 GMT
    49                           ; 
    50                           ; Copyright © 2023, Microchip Technology Inc. and its subsidiaries ("Microchip")
    51                           ; All rights reserved.
    52                           ; 
    53                           ; This software is developed by Microchip Technology Inc. and its subsidiaries ("Microch
      +                          ip").
    54                           ; 
    55                           ; Redistribution and use in source and binary forms, with or without modification, are
    56                           ; permitted provided that the following conditions are met:
    57                           ; 
    58                           ;     1. Redistributions of source code must retain the above copyright notice, this lis
      +                          t of
    59                           ;        conditions and the following disclaimer.
    60                           ; 
    61                           ;     2. Redistributions in binary form must reproduce the above copyright notice, this 
      +                          list
    62                           ;        of conditions and the following disclaimer in the documentation and/or other
    63                           ;        materials provided with the distribution. Publication is not required when
    64                           ;        this file is used in an embedded application.
    65                           ; 
    66                           ;     3. Microchip's name may not be used to endorse or promote products derived from th
      +                          is
    67                           ;        software without specific prior written permission.
    68                           ; 
    69                           ; THIS SOFTWARE IS PROVIDED BY MICROCHIP "AS IS" AND ANY EXPRESS OR IMPLIED WARRANTIES,
    70                           ; INCLUDING, BUT NOT LIMITED TO, THE IMPLIED WARRANTIES OF MERCHANTABILITY AND FITNESS F
      +                          OR
    71                           ; PURPOSE ARE DISCLAIMED.  IN NO EVENT SHALL MICROCHIP BE LIABLE FOR ANY DIRECT, INDIREC
      +                          T,
    72                           ; INCIDENTAL, SPECIAL, EXEMPLARY, OR CONSEQUENTIAL DAMAGES (INCLUDING BUT NOT LIMITED TO
    73                           ; PROCUREMENT OF SUBSTITUTE GOODS OR SERVICES; LOSS OF USE, DATA OR PROFITS; OR BUSINESS
    74                           ; INTERRUPTION) HOWSOEVER CAUSED AND ON ANY THEORY OF LIABILITY, WHETHER IN CONTRACT, ST
      +                          RICT
    75                           ; LIABILITY, OR TORT (INCLUDING NEGLIGENCE OR OTHERWISE) ARISING IN ANY WAY OUT OF THE U
      +                          SE OF
    76                           ; THIS SOFTWARE, EVEN IF ADVISED OF THE POSSIBILITY OF SUCH DAMAGE.
    77                           ; 
    78                           ; 
    79                           ; Code-generator required, PIC18F4620 Definitions
    80                           ; 
    81                           ; SFR Addresses
    82   000000                     
    83                           	psect	idataCOMRAM
    84   00283C                     __pidataCOMRAM:
    85                           	callstack 0
    86                           
    87                           ;initializer for _RB5_Flag
    88   00283C  01                 	db	1
    89                           
    90                           ;initializer for _RB4_Flag
    91   00283D  01                 	db	1
    92                           
    93                           ;initializer for _led2
    94   00283E  0B                 	db	11
    95   00283F  00                 	db	0
    96                           
    97                           ;initializer for _led1
    98   002840  03                 	db	3
    99   002841  00                 	db	0
   100                           
   101                           	psect	idataBANK0
   102   0026A8                     __pidataBANK0:
   103                           	callstack 0
   104                           
   105                           ;initializer for _PORT_registers
   106   0026A8  80                 	db	128
   107   0026A9  0F                 	db	15
   108   0026AA  81                 	db	129
   109   0026AB  0F                 	db	15
   110   0026AC  82                 	db	130
   111   0026AD  0F                 	db	15
   112   0026AE  83                 	db	131
   113   0026AF  0F                 	db	15
   114   0026B0  84                 	db	132
   115   0026B1  0F                 	db	15
   116                           
   117                           ;initializer for _LAT_registers
   118   0026B2  89                 	db	137
   119   0026B3  0F                 	db	15
   120   0026B4  8A                 	db	138
   121   0026B5  0F                 	db	15
   122   0026B6  8B                 	db	139
   123   0026B7  0F                 	db	15
   124   0026B8  8C                 	db	140
   125   0026B9  0F                 	db	15
   126   0026BA  8D                 	db	141
   127   0026BB  0F                 	db	15
   128                           
   129                           ;initializer for _tris_registers
   130   0026BC  92                 	db	146
   131   0026BD  0F                 	db	15
   132   0026BE  93                 	db	147
   133   0026BF  0F                 	db	15
   134   0026C0  94                 	db	148
   135   0026C1  0F                 	db	15
   136   0026C2  95                 	db	149
   137   0026C3  0F                 	db	15
   138   0026C4  96                 	db	150
   139   0026C5  0F                 	db	15
   140                           
   141                           ;initializer for _seg_common_cathode_values
   142   0026C6  3F                 	db	63
   143   0026C7  06                 	db	6
   144   0026C8  5B                 	db	91
   145   0026C9  4F                 	db	79
   146   0026CA  66                 	db	102
   147   0026CB  6D                 	db	109
   148   0026CC  7D                 	db	125
   149   0026CD  07                 	db	7
   150   0026CE  7F                 	db	127
   151   0026CF  6F                 	db	111
   152                           
   153                           ;initializer for _seg_common_anode_values
   154   0026D0  C0                 	db	192
   155   0026D1  F9                 	db	249
   156   0026D2  A4                 	db	164
   157   0026D3  B0                 	db	176
   158   0026D4  99                 	db	153
   159   0026D5  92                 	db	146
   160   0026D6  82                 	db	130
   161   0026D7  F8                 	db	248
   162   0026D8  80                 	db	128
   163   0026D9  90                 	db	144
   164                           
   165                           ;initializer for _BUZZER
   166   0026DA  39                 	db	57
   167   0026DB  00                 	db	0
   168                           
   169                           ;initializer for _Microwave_motor
   170   0026DC  06                 	db	6
   171   0026DD  03                 	db	3
   172   0026DE  00                 	db	0
   173   0026DF  00                 	db	0
   174   0026E0  07                 	db	7
   175   0026E1  03                 	db	3
   176   0026E2  00                 	db	0
   177   0026E3  00                 	db	0
   178                           
   179                           ;initializer for _weight_sensor
   180   0026E4  03                 	db	3
   181   0026E5  01                 	db	1
   182   0026E6  00                 	db	0
   183   0026E7  01                 	db	1
   184   0026E8  00                 	db	0
   185   0026E9  00                 	db	0
   186                           
   187                           ;initializer for _door_sensor
   188   0026EA  02                 	db	2
   189   0026EB  01                 	db	1
   190   0026EC  00                 	db	0
   191   0026ED  01                 	db	1
   192   0026EE  00                 	db	0
   193   0026EF  00                 	db	0
   194                           
   195                           ;initializer for _start_btn
   196   0026F0  00                 	db	0
   197   0026F1  01                 	db	1
   198   0026F2  00                 	db	0
   199   0026F3  01                 	db	1
   200   0026F4  00                 	db	0
   201   0026F5  00                 	db	0
   202                           
   203                           	psect	idataBANK1
   204   0026F6                     __pidataBANK1:
   205                           	callstack 0
   206                           
   207                           ;initializer for _keypad_values
   208   0026F6  37                 	db	55
   209   0026F7  38                 	db	56
   210   0026F8  39                 	db	57
   211   0026F9  2F                 	db	47
   212   0026FA  34                 	db	52
   213   0026FB  35                 	db	53
   214   0026FC  36                 	db	54
   215   0026FD  2A                 	db	42
   216   0026FE  31                 	db	49
   217   0026FF  32                 	db	50
   218   002700  33                 	db	51
   219   002701  2D                 	db	45
   220   002702  23                 	db	35
   221   002703  30                 	db	48
   222   002704  3D                 	db	61
   223   002705  2B                 	db	43
   224                           
   225                           ;initializer for _keypad1
   226   002706  00                 	db	0
   227   002707  02                 	db	2
   228   002708  00                 	db	0
   229   002709  00                 	db	0
   230   00270A  01                 	db	1
   231   00270B  02                 	db	2
   232   00270C  00                 	db	0
   233   00270D  00                 	db	0
   234   00270E  02                 	db	2
   235   00270F  02                 	db	2
   236   002710  00                 	db	0
   237   002711  00                 	db	0
   238   002712  03                 	db	3
   239   002713  02                 	db	2
   240   002714  00                 	db	0
   241   002715  00                 	db	0
   242   002716  04                 	db	4
   243   002717  02                 	db	2
   244   002718  00                 	db	0
   245   002719  01                 	db	1
   246   00271A  05                 	db	5
   247   00271B  02                 	db	2
   248   00271C  00                 	db	0
   249   00271D  01                 	db	1
   250   00271E  06                 	db	6
   251   00271F  02                 	db	2
   252   002720  00                 	db	0
   253   002721  01                 	db	1
   254   002722  07                 	db	7
   255   002723  02                 	db	2
   256   002724  00                 	db	0
   257   002725  01                 	db	1
   258                           
   259                           ;initializer for _lcd1
   260   002726  01                 	db	1
   261   002727  03                 	db	3
   262   002728  00                 	db	0
   263   002729  00                 	db	0
   264   00272A  00                 	db	0
   265   00272B  03                 	db	3
   266   00272C  00                 	db	0
   267   00272D  00                 	db	0
   268   00272E  02                 	db	2
   269   00272F  03                 	db	3
   270   002730  00                 	db	0
   271   002731  00                 	db	0
   272   002732  03                 	db	3
   273   002733  03                 	db	3
   274   002734  00                 	db	0
   275   002735  00                 	db	0
   276   002736  04                 	db	4
   277   002737  03                 	db	3
   278   002738  00                 	db	0
   279   002739  00                 	db	0
   280   00273A  05                 	db	5
   281   00273B  03                 	db	3
   282   00273C  00                 	db	0
   283   00273D  00                 	db	0
   284   000000                     _SPBRGH	set	4016
   285   000000                     _SPBRG	set	4015
   286   000000                     _TXREG	set	4013
   287   000000                     _TXSTAbits	set	4012
   288   000000                     _RCREG	set	4014
   289   000000                     _RCSTAbits	set	4011
   290   000000                     _TMR3L	set	4018
   291   000000                     _TMR3H	set	4019
   292   000000                     _T3CONbits	set	4017
   293   000000                     _TMR2	set	4044
   294   000000                     _TMR1L	set	4046
   295   000000                     _TMR1H	set	4047
   296   000000                     _T1CONbits	set	4045
   297   000000                     _TMR0L	set	4054
   298   000000                     _TMR0H	set	4055
   299   000000                     _T0CONbits	set	4053
   300   000000                     _INTCON2bits	set	4081
   301   000000                     _INTCON3bits	set	4080
   302   000000                     _EECON2	set	4007
   303   000000                     _CCPR2H	set	4028
   304   000000                     _CCPR2L	set	4027
   305   000000                     _CCPR1H	set	4031
   306   000000                     _CCPR1L	set	4030
   307   000000                     _ADCON1bits	set	4033
   308   000000                     _TRISD	set	3989
   309   000000                     _TRISC	set	3988
   310   000000                     _TRISB	set	3987
   311   000000                     _TRISE	set	3990
   312   000000                     _TRISCbits	set	3988
   313   000000                     _PIE1bits	set	3997
   314   000000                     _ADCON2bits	set	4032
   315   000000                     _ADCON0bits	set	4034
   316   000000                     _PORTE	set	3972
   317   000000                     _PORTD	set	3971
   318   000000                     _PORTC	set	3970
   319   000000                     _PORTB	set	3969
   320   000000                     _PORTA	set	3968
   321   000000                     _LATA	set	3977
   322   000000                     _TRISA	set	3986
   323   000000                     _T2CONbits	set	4042
   324   000000                     _ADRESH	set	4036
   325   000000                     _ADRESL	set	4035
   326   000000                     _INTCONbits	set	4082
   327   000000                     _PR2	set	4043
   328   000000                     _PIE2bits	set	4000
   329   000000                     _PIR2bits	set	4001
   330   000000                     _EECON1bits	set	4006
   331   000000                     _EEDATA	set	4008
   332   000000                     _EEADR	set	4009
   333   000000                     _EEADRH	set	4010
   334   000000                     _CCP2CONbits	set	4026
   335   000000                     _CCP1CONbits	set	4029
   336   000000                     _PIR1bits	set	3998
   337   000000                     _LATE	set	3981
   338   000000                     _LATD	set	3980
   339   000000                     _LATC	set	3979
   340   000000                     _LATB	set	3978
   341   000000                     _BAUDCONbits	set	4024
   342                           
   343                           	psect	smallconst
   344   001000                     __psmallconst:
   345                           	callstack 0
   346   001000  00                 	db	0
   347   001001                     STR_6:
   348   001001  41                 	db	65	;'A'
   349   001002  4C                 	db	76	;'L'
   350   001003  4C                 	db	76	;'L'
   351   001004  20                 	db	32
   352   001005  4C                 	db	76	;'L'
   353   001006  45                 	db	69	;'E'
   354   001007  44                 	db	68	;'D'
   355   001008  73                 	db	115	;'s'
   356   001009  20                 	db	32
   357   00100A  4F                 	db	79	;'O'
   358   00100B  46                 	db	70	;'F'
   359   00100C  46                 	db	70	;'F'
   360   00100D  0D                 	db	13
   361   00100E  00                 	db	0
   362   00100F                     STR_4:
   363   00100F  47                 	db	71	;'G'
   364   001010  72                 	db	114	;'r'
   365   001011  65                 	db	101	;'e'
   366   001012  65                 	db	101	;'e'
   367   001013  6E                 	db	110	;'n'
   368   001014  20                 	db	32
   369   001015  4C                 	db	76	;'L'
   370   001016  45                 	db	69	;'E'
   371   001017  44                 	db	68	;'D'
   372   001018  20                 	db	32
   373   001019  4F                 	db	79	;'O'
   374   00101A  4E                 	db	78	;'N'
   375   00101B  0D                 	db	13
   376   00101C  00                 	db	0
   377   00101D                     STR_5:
   378   00101D  52                 	db	82	;'R'
   379   00101E  45                 	db	69	;'E'
   380   00101F  44                 	db	68	;'D'
   381   001020  20                 	db	32
   382   001021  4C                 	db	76	;'L'
   383   001022  45                 	db	69	;'E'
   384   001023  44                 	db	68	;'D'
   385   001024  20                 	db	32
   386   001025  4F                 	db	79	;'O'
   387   001026  4E                 	db	78	;'N'
   388   001027  0D                 	db	13
   389   001028  00                 	db	0
   390   001029                     STR_1:
   391   001029  25                 	db	37
   392   00102A  69                 	db	105	;'i'
   393   00102B  00                 	db	0
   394   00102C  00                 	db	0	; dummy byte at the end
   395   000000                     
   396                           ; #config settings
   397                           
   398                           	psect	cinit
   399   00252E                     __pcinit:
   400                           	callstack 0
   401   00252E                     start_initialization:
   402                           	callstack 0
   403   00252E                     __initialization:
   404                           	callstack 0
   405                           
   406                           ; Initialize objects allocated to BANK1 (72 bytes)
   407                           ; load TBLPTR registers with __pidataBANK1
   408   00252E  0EF6               	movlw	low __pidataBANK1
   409   002530  6EF6               	movwf	tblptrl,c
   410   002532  0E26               	movlw	high __pidataBANK1
   411   002534  6EF7               	movwf	tblptrh,c
   412   002536  0E00               	movlw	low (__pidataBANK1 shr (0+16))
   413   002538  6EF8               	movwf	tblptru,c
   414   00253A  EE01  F000         	lfsr	0,__pdataBANK1
   415   00253E  EE10 F048          	lfsr	1,72
   416   002542                     copy_data0:
   417   002542  0009               	tblrd		*+
   418   002544  CFF5 FFEE          	movff	tablat,postinc0
   419   002548  50E5               	movf	postdec1,w,c
   420   00254A  50E1               	movf	fsr1l,w,c
   421   00254C  E1FA               	bnz	copy_data0
   422                           
   423                           ; Initialize objects allocated to BANK0 (78 bytes)
   424                           ; load TBLPTR registers with __pidataBANK0
   425   00254E  0EA8               	movlw	low __pidataBANK0
   426   002550  6EF6               	movwf	tblptrl,c
   427   002552  0E26               	movlw	high __pidataBANK0
   428   002554  6EF7               	movwf	tblptrh,c
   429   002556  0E00               	movlw	low (__pidataBANK0 shr (0+16))
   430   002558  6EF8               	movwf	tblptru,c
   431   00255A  EE00  F080         	lfsr	0,__pdataBANK0
   432   00255E  EE10 F04E          	lfsr	1,78
   433   002562                     copy_data1:
   434   002562  0009               	tblrd		*+
   435   002564  CFF5 FFEE          	movff	tablat,postinc0
   436   002568  50E5               	movf	postdec1,w,c
   437   00256A  50E1               	movf	fsr1l,w,c
   438   00256C  E1FA               	bnz	copy_data1
   439                           
   440                           ; Initialize objects allocated to COMRAM (6 bytes)
   441                           ; load TBLPTR registers with __pidataCOMRAM
   442   00256E  0E3C               	movlw	low __pidataCOMRAM
   443   002570  6EF6               	movwf	tblptrl,c
   444   002572  0E28               	movlw	high __pidataCOMRAM
   445   002574  6EF7               	movwf	tblptrh,c
   446   002576  0E00               	movlw	low (__pidataCOMRAM shr (0+16))
   447   002578  6EF8               	movwf	tblptru,c
   448   00257A  EE00  F078         	lfsr	0,__pdataCOMRAM
   449   00257E  EE10 F006          	lfsr	1,6
   450   002582                     copy_data2:
   451   002582  0009               	tblrd		*+
   452   002584  CFF5 FFEE          	movff	tablat,postinc0
   453   002588  50E5               	movf	postdec1,w,c
   454   00258A  50E1               	movf	fsr1l,w,c
   455   00258C  E1FA               	bnz	copy_data2
   456                           
   457                           ; Clear objects allocated to BANK0 (38 bytes)
   458   00258E  EE00  F0CE         	lfsr	0,__pbssBANK0
   459   002592  0E26               	movlw	38
   460   002594                     clear_0:
   461   002594  6AEE               	clrf	postinc0,c
   462   002596  06E8               	decf	wreg,f,c
   463   002598  E1FD               	bnz	clear_0
   464                           
   465                           ; Clear objects allocated to COMRAM (34 bytes)
   466   00259A  EE00  F056         	lfsr	0,__pbssCOMRAM
   467   00259E  0E22               	movlw	34
   468   0025A0                     clear_1:
   469   0025A0  6AEE               	clrf	postinc0,c
   470   0025A2  06E8               	decf	wreg,f,c
   471   0025A4  E1FD               	bnz	clear_1
   472   0025A6                     end_of_initialization:
   473                           	callstack 0
   474   0025A6                     __end_of__initialization:
   475                           	callstack 0
   476   0025A6  907E               	bcf	int$flags,0,c	;clear compiler interrupt flag (level 1)
   477   0025A8  927E               	bcf	int$flags,1,c	;clear compiler interrupt flag (level 2)
   478   0025AA  0100               	movlb	0
   479   0025AC  EFB8  F011         	goto	_main	;jump to C main() function
   480                           
   481                           	psect	bssCOMRAM
   482   000056                     __pbssCOMRAM:
   483                           	callstack 0
   484   000056                     _preload_value:
   485                           	callstack 0
   486   000056                     	ds	2
   487   000058                     _Timer2_Interrupt_Handler:
   488                           	callstack 0
   489   000058                     	ds	2
   490   00005A                     _timer1_preload:
   491                           	callstack 0
   492   00005A                     	ds	2
   493   00005C                     _timer0_preload:
   494                           	callstack 0
   495   00005C                     	ds	2
   496   00005E                     _RB6_InterruptHandler_Low:
   497                           	callstack 0
   498   00005E                     	ds	2
   499   000060                     _RB6_InterruptHandler_High:
   500                           	callstack 0
   501   000060                     	ds	2
   502   000062                     _RB5_InterruptHandler_Low:
   503                           	callstack 0
   504   000062                     	ds	2
   505   000064                     _RB5_InterruptHandler_High:
   506                           	callstack 0
   507   000064                     	ds	2
   508   000066                     _RB4_InterruptHandler_Low:
   509                           	callstack 0
   510   000066                     	ds	2
   511   000068                     _RB4_InterruptHandler_High:
   512                           	callstack 0
   513   000068                     	ds	2
   514   00006A                     _INT2_InterruptHandler:
   515                           	callstack 0
   516   00006A                     	ds	2
   517   00006C                     _INT1_InterruptHandler:
   518                           	callstack 0
   519   00006C                     	ds	2
   520   00006E                     _INT0_InterruptHandler:
   521                           	callstack 0
   522   00006E                     	ds	2
   523   000070                     CCP_Compare_Mode_Set_Value@F2958:
   524                           	callstack 0
   525   000070                     	ds	2
   526   000072                     _CCP1_InterruptHandler:
   527                           	callstack 0
   528   000072                     	ds	2
   529   000074                     _ADC_InterruptHandler:
   530                           	callstack 0
   531   000074                     	ds	2
   532   000076                     _Timer2_preload:
   533                           	callstack 0
   534   000076                     	ds	1
   535   000077                     _data:
   536                           	callstack 0
   537   000077                     	ds	1
   538                           
   539                           	psect	dataCOMRAM
   540   000078                     __pdataCOMRAM:
   541                           	callstack 0
   542   000078                     _RB5_Flag:
   543                           	callstack 0
   544   000078                     	ds	1
   545   000079                     _RB4_Flag:
   546                           	callstack 0
   547   000079                     	ds	1
   548   00007A                     _led2:
   549                           	callstack 0
   550   00007A                     	ds	2
   551   00007C                     _led1:
   552                           	callstack 0
   553   00007C                     	ds	2
   554                           
   555                           	psect	bssBANK0
   556   0000CE                     __pbssBANK0:
   557                           	callstack 0
   558   0000CE                     LED_toggle@F2915:
   559                           	callstack 0
   560   0000CE                     	ds	4
   561   0000D2                     LED_off@F2910:
   562                           	callstack 0
   563   0000D2                     	ds	4
   564   0000D6                     LED_on@F2905:
   565                           	callstack 0
   566   0000D6                     	ds	4
   567   0000DA                     LED_init@F2900:
   568                           	callstack 0
   569   0000DA                     	ds	4
   570   0000DE                     BUZ_off@F2908:
   571                           	callstack 0
   572   0000DE                     	ds	4
   573   0000E2                     BUZ_on@F2903:
   574                           	callstack 0
   575   0000E2                     	ds	4
   576   0000E6                     BUZ_init@F2898:
   577                           	callstack 0
   578   0000E6                     	ds	4
   579   0000EA                     _Timer3_InterruptHandler:
   580                           	callstack 0
   581   0000EA                     	ds	2
   582   0000EC                     _timer1_InterruptHandler:
   583                           	callstack 0
   584   0000EC                     	ds	2
   585   0000EE                     _timer0_InterruptHandler:
   586                           	callstack 0
   587   0000EE                     	ds	2
   588   0000F0                     _RB7_InterruptHandler_Low:
   589                           	callstack 0
   590   0000F0                     	ds	2
   591   0000F2                     _RB7_InterruptHandler_High:
   592                           	callstack 0
   593   0000F2                     	ds	2
   594                           
   595                           	psect	dataBANK0
   596   000080                     __pdataBANK0:
   597                           	callstack 0
   598   000080                     _PORT_registers:
   599                           	callstack 0
   600   000080                     	ds	10
   601   00008A                     _LAT_registers:
   602                           	callstack 0
   603   00008A                     	ds	10
   604   000094                     _tris_registers:
   605                           	callstack 0
   606   000094                     	ds	10
   607   00009E                     _seg_common_cathode_values:
   608                           	callstack 0
   609   00009E                     	ds	10
   610   0000A8                     _seg_common_anode_values:
   611                           	callstack 0
   612   0000A8                     	ds	10
   613   0000B2                     _BUZZER:
   614                           	callstack 0
   615   0000B2                     	ds	2
   616   0000B4                     _Microwave_motor:
   617                           	callstack 0
   618   0000B4                     	ds	8
   619   0000BC                     _weight_sensor:
   620                           	callstack 0
   621   0000BC                     	ds	6
   622   0000C2                     _door_sensor:
   623                           	callstack 0
   624   0000C2                     	ds	6
   625   0000C8                     _start_btn:
   626                           	callstack 0
   627   0000C8                     	ds	6
   628                           
   629                           	psect	dataBANK1
   630   000100                     __pdataBANK1:
   631                           	callstack 0
   632   000100                     _keypad_values:
   633                           	callstack 0
   634   000100                     	ds	16
   635   000110                     _keypad1:
   636                           	callstack 0
   637   000110                     	ds	32
   638   000130                     _lcd1:
   639                           	callstack 0
   640   000130                     	ds	24
   641                           
   642                           	psect	cstackCOMRAM
   643   000001                     __pcstackCOMRAM:
   644                           	callstack 0
   645   000001                     ?___fltol:
   646                           	callstack 0
   647   000001                     ?___xxtofl:
   648                           	callstack 0
   649   000001                     Uart_ReadByteNonBlocking@data:
   650                           	callstack 0
   651   000001                     Uart_WriteStringBlocking@data:
   652                           	callstack 0
   653   000001                     Uart_ASYNC_TX_Init@_eusart:
   654                           	callstack 0
   655   000001                     Uart_ASYNC_RX_Init@_eusart:
   656                           	callstack 0
   657   000001                     gpio_set_pin_direction@pin_config:
   658                           	callstack 0
   659   000001                     gpio_write_pin_logic@pin_config:
   660                           	callstack 0
   661   000001                     ___fltol@f1:
   662                           	callstack 0
   663   000001                     ___xxtofl@val:
   664                           	callstack 0
   665                           
   666                           ; 4 bytes @ 0x0
   667   000001                     	ds	1
   668   000002                     
   669                           ; 1 bytes @ 0x1
   670   000002                     	ds	1
   671   000003                     ??_gpio_set_pin_direction:
   672   000003                     gpio_write_pin_logic@logic:
   673                           	callstack 0
   674                           
   675                           ; 1 bytes @ 0x2
   676   000003                     	ds	1
   677   000004                     ??_gpio_write_pin_logic:
   678                           
   679                           ; 1 bytes @ 0x3
   680   000004                     	ds	1
   681   000005                     ??___fltol:
   682   000005                     ??___xxtofl:
   683                           
   684                           ; 1 bytes @ 0x4
   685   000005                     	ds	3
   686   000008                     LED_init@led:
   687                           	callstack 0
   688                           
   689                           ; 1 bytes @ 0x7
   690   000008                     	ds	1
   691   000009                     LED_on@led:
   692                           	callstack 0
   693   000009                     LED_off@led:
   694                           	callstack 0
   695   000009                     ___fltol@sign1:
   696                           	callstack 0
   697   000009                     ___xxtofl@sign:
   698                           	callstack 0
   699   000009                     LED_init@led_obj:
   700                           	callstack 0
   701                           
   702                           ; 4 bytes @ 0x8
   703   000009                     	ds	1
   704   00000A                     ___fltol@exp1:
   705                           	callstack 0
   706   00000A                     ___xxtofl@exp:
   707                           	callstack 0
   708   00000A                     LED_on@led_obj:
   709                           	callstack 0
   710   00000A                     LED_off@led_obj:
   711                           	callstack 0
   712                           
   713                           ; 4 bytes @ 0x9
   714   00000A                     	ds	1
   715   00000B                     ___xxtofl@arg:
   716                           	callstack 0
   717                           
   718                           ; 4 bytes @ 0xA
   719   00000B                     	ds	4
   720   00000F                     ?___fldiv:
   721                           	callstack 0
   722   00000F                     ___fldiv@b:
   723                           	callstack 0
   724                           
   725                           ; 4 bytes @ 0xE
   726   00000F                     	ds	4
   727   000013                     ___fldiv@a:
   728                           	callstack 0
   729                           
   730                           ; 4 bytes @ 0x12
   731   000013                     	ds	4
   732   000017                     ??___fldiv:
   733                           
   734                           ; 1 bytes @ 0x16
   735   000017                     	ds	4
   736   00001B                     ___fldiv@rem:
   737                           	callstack 0
   738                           
   739                           ; 4 bytes @ 0x1A
   740   00001B                     	ds	4
   741   00001F                     ___fldiv@sign:
   742                           	callstack 0
   743                           
   744                           ; 1 bytes @ 0x1E
   745   00001F                     	ds	1
   746   000020                     ___fldiv@new_exp:
   747                           	callstack 0
   748                           
   749                           ; 2 bytes @ 0x1F
   750   000020                     	ds	2
   751   000022                     ___fldiv@grs:
   752                           	callstack 0
   753                           
   754                           ; 4 bytes @ 0x21
   755   000022                     	ds	4
   756   000026                     ___fldiv@bexp:
   757                           	callstack 0
   758                           
   759                           ; 1 bytes @ 0x25
   760   000026                     	ds	1
   761   000027                     ___fldiv@aexp:
   762                           	callstack 0
   763                           
   764                           ; 1 bytes @ 0x26
   765   000027                     	ds	1
   766   000028                     ?___fladd:
   767                           	callstack 0
   768   000028                     ___fladd@b:
   769                           	callstack 0
   770                           
   771                           ; 4 bytes @ 0x27
   772   000028                     	ds	4
   773   00002C                     ___fladd@a:
   774                           	callstack 0
   775                           
   776                           ; 4 bytes @ 0x2B
   777   00002C                     	ds	4
   778   000030                     ??___fladd:
   779                           
   780                           ; 1 bytes @ 0x2F
   781   000030                     	ds	4
   782   000034                     ___fladd@signs:
   783                           	callstack 0
   784                           
   785                           ; 1 bytes @ 0x33
   786   000034                     	ds	1
   787   000035                     ___fladd@aexp:
   788                           	callstack 0
   789                           
   790                           ; 1 bytes @ 0x34
   791   000035                     	ds	1
   792   000036                     ___fladd@bexp:
   793                           	callstack 0
   794                           
   795                           ; 1 bytes @ 0x35
   796   000036                     	ds	1
   797   000037                     ___fladd@grs:
   798                           	callstack 0
   799                           
   800                           ; 1 bytes @ 0x36
   801   000037                     	ds	1
   802   000038                     Uart_Baud_Rate_Calculation@_eusart:
   803                           	callstack 0
   804                           
   805                           ; 1 bytes @ 0x37
   806   000038                     	ds	1
   807   000039                     ??_Uart_Baud_Rate_Calculation:
   808                           
   809                           ; 1 bytes @ 0x38
   810   000039                     	ds	2
   811   00003B                     Uart_Baud_Rate_Calculation@Baud_Rate_Temp:
   812                           	callstack 0
   813                           
   814                           ; 4 bytes @ 0x3A
   815   00003B                     	ds	4
   816   00003F                     _Uart_Baud_Rate_Calculation$4650:
   817                           	callstack 0
   818                           
   819                           ; 4 bytes @ 0x3E
   820   00003F                     	ds	4
   821   000043                     Uart_Init@uart_obj:
   822                           	callstack 0
   823                           
   824                           ; 1 bytes @ 0x42
   825   000043                     	ds	1
   826   000044                     uart_init@obj:
   827                           	callstack 0
   828                           
   829                           ; 16 bytes @ 0x43
   830   000044                     	ds	16
   831   000054                     ??_main:
   832                           
   833                           ; 1 bytes @ 0x53
   834   000054                     	ds	2
   835                           
   836 ;;
   837 ;;Main: autosize = 0, tempsize = 2, incstack = 0, save=0
   838 ;;
   839 ;; *************** function _main *****************
   840 ;; Defined at:
   841 ;;		line 33 in file "main.c"
   842 ;; Parameters:    Size  Location     Type
   843 ;;		None
   844 ;; Auto vars:     Size  Location     Type
   845 ;;		None
   846 ;; Return value:  Size  Location     Type
   847 ;;                  2  1179[None  ] int 
   848 ;; Registers used:
   849 ;;		wreg, fsr2l, fsr2h, status,2, status,0, tblptrl, tblptrh, tblptru, prodl, prodh, cstack
   850 ;; Tracked objects:
   851 ;;		On entry : 0/0
   852 ;;		On exit  : 0/0
   853 ;;		Unchanged: 0/0
   854 ;; Data sizes:     COMRAM   BANK0   BANK1   BANK2   BANK3   BANK4   BANK5   BANK6   BANK7   BANK8   BANK9  BANK10  BANK1
      +1  BANK12  BANK13  BANK14  BANK15
   855 ;;      Params:         0       0       0       0       0       0       0       0       0       0       0       0       
      +0       0       0       0       0
   856 ;;      Locals:         0       0       0       0       0       0       0       0       0       0       0       0       
      +0       0       0       0       0
   857 ;;      Temps:          2       0       0       0       0       0       0       0       0       0       0       0       
      +0       0       0       0       0
   858 ;;      Totals:         2       0       0       0       0       0       0       0       0       0       0       0       
      +0       0       0       0       0
   859 ;;Total ram usage:        2 bytes
   860 ;; Hardware stack levels required when called: 6
   861 ;; This function calls:
   862 ;;		_LED_init
   863 ;;		_LED_off
   864 ;;		_LED_on
   865 ;;		_Uart_ReadByteNonBlocking
   866 ;;		_Uart_WriteStringBlocking
   867 ;;		_uart_init
   868 ;; This function is called by:
   869 ;;		Startup code after reset
   870 ;; This function uses a non-reentrant model
   871 ;;
   872                           
   873                           	psect	text0
   874   002370                     __ptext0:
   875                           	callstack 0
   876   002370                     _main:
   877                           	callstack 25
   878   002370                     
   879                           ;main.c: 34:     uart_init();
   880   002370  ECC1  F013         	call	_uart_init	;wreg free
   881   002374                     
   882                           ;main.c: 35:     LED_init(&led1);
   883   002374  0E7C               	movlw	low _led1
   884   002376  6E08               	movwf	LED_init@led^0,c
   885   002378  EC2C  F013         	call	_LED_init	;wreg free
   886   00237C                     
   887                           ;main.c: 36:     LED_init(&led2);
   888   00237C  0E7A               	movlw	low _led2
   889   00237E  6E08               	movwf	LED_init@led^0,c
   890   002380  EC2C  F013         	call	_LED_init	;wreg free
   891   002384                     l1180:
   892                           
   893                           ;main.c: 45:     Uart_ReadByteNonBlocking(&data);
   894   002384  0E77               	movlw	low _data
   895   002386  6E01               	movwf	Uart_ReadByteNonBlocking@data^0,c
   896   002388  ECFB  F013         	call	_Uart_ReadByteNonBlocking	;wreg free
   897   00238C                     
   898                           ;main.c: 46:      if(data=='a')
   899   00238C  0E61               	movlw	97
   900   00238E  1877               	xorwf	_data^0,w,c
   901   002390  A4D8               	btfss	status,2,c
   902   002392  EFCD  F011         	goto	u6981
   903   002396  EFCF  F011         	goto	u6980
   904   00239A                     u6981:
   905   00239A  EFE4  F011         	goto	l7510
   906   00239E                     u6980:
   907   00239E                     
   908                           ;main.c: 47:      {;main.c: 48:          LED_on(&led1);
   909   00239E  0E7C               	movlw	low _led1
   910   0023A0  6E09               	movwf	LED_on@led^0,c
   911   0023A2  ECD8  F012         	call	_LED_on	;wreg free
   912   0023A6                     
   913                           ;main.c: 49:          Uart_WriteStringBlocking("Green LED ON\r");
   914   0023A6  0E0F               	movlw	low STR_4
   915   0023A8  6E01               	movwf	Uart_WriteStringBlocking@data^0,c
   916   0023AA  EC9F  F013         	call	_Uart_WriteStringBlocking	;wreg free
   917   0023AE                     l7508:
   918                           
   919                           ;main.c: 50:       _delay((unsigned long)((250)*(8000000UL/4000.0)));
   920   0023AE  0E03               	movlw	3
   921   0023B0  6E55               	movwf	(??_main+1)^0,c
   922   0023B2  0E8A               	movlw	138
   923   0023B4  6E54               	movwf	??_main^0,c
   924   0023B6  0E56               	movlw	86
   925   0023B8                     u7007:
   926   0023B8  2EE8               	decfsz	wreg,f,c
   927   0023BA  D7FE               	bra	u7007
   928   0023BC  2E54               	decfsz	??_main^0,f,c
   929   0023BE  D7FC               	bra	u7007
   930   0023C0  2E55               	decfsz	(??_main+1)^0,f,c
   931   0023C2  D7FA               	bra	u7007
   932                           
   933                           ;main.c: 51:      }
   934   0023C4  EFC2  F011         	goto	l1180
   935   0023C8                     l7510:
   936   0023C8  0E62               	movlw	98
   937   0023CA  1877               	xorwf	_data^0,w,c
   938   0023CC  A4D8               	btfss	status,2,c
   939   0023CE  EFEB  F011         	goto	u6991
   940   0023D2  EFED  F011         	goto	u6990
   941   0023D6                     u6991:
   942   0023D6  EFF7  F011         	goto	l7518
   943   0023DA                     u6990:
   944   0023DA                     
   945                           ;main.c: 53:      {;main.c: 54:         LED_on(&led2);
   946   0023DA  0E7A               	movlw	low _led2
   947   0023DC  6E09               	movwf	LED_on@led^0,c
   948   0023DE  ECD8  F012         	call	_LED_on	;wreg free
   949   0023E2                     
   950                           ;main.c: 55:         Uart_WriteStringBlocking("RED LED ON\r");
   951   0023E2  0E1D               	movlw	low STR_5
   952   0023E4  6E01               	movwf	Uart_WriteStringBlocking@data^0,c
   953   0023E6  EC9F  F013         	call	_Uart_WriteStringBlocking	;wreg free
   954   0023EA  EFD7  F011         	goto	l7508
   955   0023EE                     l7518:
   956                           
   957                           ;main.c: 59:      {;main.c: 60:          LED_off(&led1);
   958   0023EE  0E7C               	movlw	low _led1
   959   0023F0  6E09               	movwf	LED_off@led^0,c
   960   0023F2  EC02  F013         	call	_LED_off	;wreg free
   961                           
   962                           ;main.c: 61:          LED_off(&led2);
   963   0023F6  0E7A               	movlw	low _led2
   964   0023F8  6E09               	movwf	LED_off@led^0,c
   965   0023FA  EC02  F013         	call	_LED_off	;wreg free
   966   0023FE                     
   967                           ;main.c: 62:          Uart_WriteStringBlocking("ALL LEDs OFF\r");
   968   0023FE  0E01               	movlw	low STR_6
   969   002400  6E01               	movwf	Uart_WriteStringBlocking@data^0,c
   970   002402  EC9F  F013         	call	_Uart_WriteStringBlocking	;wreg free
   971   002406  EFD7  F011         	goto	l7508
   972   00240A  EF07  F000         	goto	start
   973   00240E                     __end_of_main:
   974                           	callstack 0
   975                           
   976 ;; *************** function _uart_init *****************
   977 ;; Defined at:
   978 ;;		line 10 in file "main.c"
   979 ;; Parameters:    Size  Location     Type
   980 ;;		None
   981 ;; Auto vars:     Size  Location     Type
   982 ;;  obj            16   67[COMRAM] struct .
   983 ;; Return value:  Size  Location     Type
   984 ;;                  1    wreg      void 
   985 ;; Registers used:
   986 ;;		wreg, fsr2l, fsr2h, status,2, status,0, cstack
   987 ;; Tracked objects:
   988 ;;		On entry : 0/0
   989 ;;		On exit  : 0/0
   990 ;;		Unchanged: 0/0
   991 ;; Data sizes:     COMRAM   BANK0   BANK1   BANK2   BANK3   BANK4   BANK5   BANK6   BANK7   BANK8   BANK9  BANK10  BANK1
      +1  BANK12  BANK13  BANK14  BANK15
   992 ;;      Params:         0       0       0       0       0       0       0       0       0       0       0       0       
      +0       0       0       0       0
   993 ;;      Locals:        16       0       0       0       0       0       0       0       0       0       0       0       
      +0       0       0       0       0
   994 ;;      Temps:          0       0       0       0       0       0       0       0       0       0       0       0       
      +0       0       0       0       0
   995 ;;      Totals:        16       0       0       0       0       0       0       0       0       0       0       0       
      +0       0       0       0       0
   996 ;;Total ram usage:       16 bytes
   997 ;; Hardware stack levels used: 1
   998 ;; Hardware stack levels required when called: 5
   999 ;; This function calls:
  1000 ;;		_Uart_Init
  1001 ;; This function is called by:
  1002 ;;		_main
  1003 ;; This function uses a non-reentrant model
  1004 ;;
  1005                           
  1006                           	psect	text1
  1007   002782                     __ptext1:
  1008                           	callstack 0
  1009   002782                     _uart_init:
  1010                           	callstack 25
  1011   002782                     
  1012                           ;main.c: 12:     usart_t obj;;main.c: 13:     obj.baudrate=9600;
  1013   002782  0E25               	movlw	37
  1014   002784  6E45               	movwf	(uart_init@obj+1)^0,c
  1015   002786  0E80               	movlw	128
  1016   002788  6E44               	movwf	uart_init@obj^0,c
  1017                           
  1018                           ;main.c: 14:     obj.baudrate_gen_gonfig=BAUDRATE_ASYN_8BIT_lOW_SPEED;
  1019   00278A  0E00               	movlw	0
  1020   00278C  6E46               	movwf	(uart_init@obj+2)^0,c
  1021   00278E                     
  1022                           ;main.c: 16:     obj.usart_rx_cfg.usart_rx_enable=1;
  1023   00278E  804A               	bsf	(uart_init@obj+6)^0,0,c
  1024   002790                     
  1025                           ;main.c: 17:     obj.usart_rx_cfg.usart_rx_9bit_enable=0;
  1026   002790  944A               	bcf	(uart_init@obj+6)^0,2,c
  1027   002792                     
  1028                           ;main.c: 18:     obj.usart_rx_cfg.usart_rx_interrupt_enable=0;
  1029   002792  924A               	bcf	(uart_init@obj+6)^0,1,c
  1030   002794                     
  1031                           ;main.c: 20:     obj.usart_tx_cfg.usart_tx_9bit_enable=0;
  1032   002794  9448               	bcf	(uart_init@obj+4)^0,2,c
  1033   002796                     
  1034                           ;main.c: 21:     obj.usart_tx_cfg.usart_tx_enable=1;
  1035   002796  8048               	bsf	(uart_init@obj+4)^0,0,c
  1036   002798                     
  1037                           ;main.c: 22:     obj.usart_tx_cfg.usart_tx_interrupt_enable=0;
  1038   002798  9248               	bcf	(uart_init@obj+4)^0,1,c
  1039   00279A                     
  1040                           ;main.c: 24:     obj.EUSART_FramingErrorHandler=((void*)0);
  1041   00279A  0E00               	movlw	0
  1042   00279C  6E50               	movwf	(uart_init@obj+12)^0,c
  1043   00279E  0E00               	movlw	0
  1044   0027A0  6E51               	movwf	(uart_init@obj+13)^0,c
  1045   0027A2                     
  1046                           ;main.c: 25:     obj.EUSART_OverrunErrorHandler=((void*)0);
  1047   0027A2  0E00               	movlw	0
  1048   0027A4  6E52               	movwf	(uart_init@obj+14)^0,c
  1049   0027A6  0E00               	movlw	0
  1050   0027A8  6E53               	movwf	(uart_init@obj+15)^0,c
  1051   0027AA                     
  1052                           ;main.c: 26:     obj.EUSART_RxDefaultInterruptHandler=((void*)0);
  1053   0027AA  0E00               	movlw	0
  1054   0027AC  6E4E               	movwf	(uart_init@obj+10)^0,c
  1055   0027AE  0E00               	movlw	0
  1056   0027B0  6E4F               	movwf	(uart_init@obj+11)^0,c
  1057   0027B2                     
  1058                           ;main.c: 27:     obj.EUSART_TxDefaultInterruptHandler=((void*)0);
  1059   0027B2  0E00               	movlw	0
  1060   0027B4  6E4C               	movwf	(uart_init@obj+8)^0,c
  1061   0027B6  0E00               	movlw	0
  1062   0027B8  6E4D               	movwf	(uart_init@obj+9)^0,c
  1063   0027BA                     
  1064                           ;main.c: 28:     Uart_Init(&obj);
  1065   0027BA  0E44               	movlw	low uart_init@obj
  1066   0027BC  6E43               	movwf	Uart_Init@uart_obj^0,c
  1067   0027BE  ECE2  F013         	call	_Uart_Init	;wreg free
  1068   0027C2  0012               	return		;funcret
  1069   0027C4                     __end_of_uart_init:
  1070                           	callstack 0
  1071                           
  1072 ;; *************** function _Uart_Init *****************
  1073 ;; Defined at:
  1074 ;;		line 9 in file "MCAL_Layer/USART/usart.c"
  1075 ;; Parameters:    Size  Location     Type
  1076 ;;  uart_obj        1   66[COMRAM] PTR struct .
  1077 ;;		 -> uart_init@obj(16), 
  1078 ;; Auto vars:     Size  Location     Type
  1079 ;;  ret             1    0        enum E2841
  1080 ;; Return value:  Size  Location     Type
  1081 ;;                  1    wreg      enum E2841
  1082 ;; Registers used:
  1083 ;;		wreg, fsr2l, fsr2h, status,2, status,0, cstack
  1084 ;; Tracked objects:
  1085 ;;		On entry : 0/0
  1086 ;;		On exit  : 0/0
  1087 ;;		Unchanged: 0/0
  1088 ;; Data sizes:     COMRAM   BANK0   BANK1   BANK2   BANK3   BANK4   BANK5   BANK6   BANK7   BANK8   BANK9  BANK10  BANK1
      +1  BANK12  BANK13  BANK14  BANK15
  1089 ;;      Params:         1       0       0       0       0       0       0       0       0       0       0       0       
      +0       0       0       0       0
  1090 ;;      Locals:         0       0       0       0       0       0       0       0       0       0       0       0       
      +0       0       0       0       0
  1091 ;;      Temps:          0       0       0       0       0       0       0       0       0       0       0       0       
      +0       0       0       0       0
  1092 ;;      Totals:         1       0       0       0       0       0       0       0       0       0       0       0       
      +0       0       0       0       0
  1093 ;;Total ram usage:        1 bytes
  1094 ;; Hardware stack levels used: 1
  1095 ;; Hardware stack levels required when called: 4
  1096 ;; This function calls:
  1097 ;;		_Uart_ASYNC_RX_Init
  1098 ;;		_Uart_ASYNC_TX_Init
  1099 ;;		_Uart_Baud_Rate_Calculation
  1100 ;; This function is called by:
  1101 ;;		_uart_init
  1102 ;; This function uses a non-reentrant model
  1103 ;;
  1104                           
  1105                           	psect	text2
  1106   0027C4                     __ptext2:
  1107                           	callstack 0
  1108   0027C4                     _Uart_Init:
  1109                           	callstack 25
  1110   0027C4                     
  1111                           ;MCAL_Layer/USART/usart.c: 12:     if(uart_obj!=((void*)0))
  1112   0027C4  5043               	movf	Uart_Init@uart_obj^0,w,c
  1113   0027C6  B4D8               	btfsc	status,2,c
  1114   0027C8  EFE8  F013         	goto	u4571
  1115   0027CC  EFEA  F013         	goto	u4570
  1116   0027D0                     u4571:
  1117   0027D0  EFFA  F013         	goto	l1220
  1118   0027D4                     u4570:
  1119   0027D4                     
  1120                           ;MCAL_Layer/USART/usart.c: 15:         RCSTAbits.SPEN=0;
  1121   0027D4  9EAB               	bcf	171,7,c	;volatile
  1122   0027D6                     
  1123                           ;MCAL_Layer/USART/usart.c: 16:         TRISCbits.RC6=1;
  1124   0027D6  8C94               	bsf	148,6,c	;volatile
  1125   0027D8                     
  1126                           ;MCAL_Layer/USART/usart.c: 17:         TRISCbits.RC7=1;
  1127   0027D8  8E94               	bsf	148,7,c	;volatile
  1128   0027DA                     
  1129                           ;MCAL_Layer/USART/usart.c: 18:         Uart_Baud_Rate_Calculation(uart_obj);
  1130   0027DA  C043  F038         	movff	Uart_Init@uart_obj,Uart_Baud_Rate_Calculation@_eusart
  1131   0027DE  EC17  F008         	call	_Uart_Baud_Rate_Calculation	;wreg free
  1132   0027E2                     
  1133                           ;MCAL_Layer/USART/usart.c: 19:         Uart_ASYNC_TX_Init(uart_obj);
  1134   0027E2  C043  F001         	movff	Uart_Init@uart_obj,Uart_ASYNC_TX_Init@_eusart
  1135   0027E6  EC07  F012         	call	_Uart_ASYNC_TX_Init	;wreg free
  1136   0027EA                     
  1137                           ;MCAL_Layer/USART/usart.c: 20:         Uart_ASYNC_RX_Init(uart_obj);
  1138   0027EA  C043  F001         	movff	Uart_Init@uart_obj,Uart_ASYNC_RX_Init@_eusart
  1139   0027EE  EC4F  F012         	call	_Uart_ASYNC_RX_Init	;wreg free
  1140   0027F2                     
  1141                           ;MCAL_Layer/USART/usart.c: 22:         RCSTAbits.SPEN=1;
  1142   0027F2  8EAB               	bsf	171,7,c	;volatile
  1143   0027F4                     l1220:
  1144   0027F4  0012               	return		;funcret
  1145   0027F6                     __end_of_Uart_Init:
  1146                           	callstack 0
  1147                           
  1148 ;; *************** function _Uart_Baud_Rate_Calculation *****************
  1149 ;; Defined at:
  1150 ;;		line 69 in file "MCAL_Layer/USART/usart.c"
  1151 ;; Parameters:    Size  Location     Type
  1152 ;;  _eusart         1   55[COMRAM] PTR const struct .
  1153 ;;		 -> uart_init@obj(16), 
  1154 ;; Auto vars:     Size  Location     Type
  1155 ;;  Baud_Rate_Te    4   58[COMRAM] float 
  1156 ;; Return value:  Size  Location     Type
  1157 ;;                  1    wreg      void 
  1158 ;; Registers used:
  1159 ;;		wreg, fsr2l, fsr2h, status,2, status,0, cstack
  1160 ;; Tracked objects:
  1161 ;;		On entry : 0/0
  1162 ;;		On exit  : 0/0
  1163 ;;		Unchanged: 0/0
  1164 ;; Data sizes:     COMRAM   BANK0   BANK1   BANK2   BANK3   BANK4   BANK5   BANK6   BANK7   BANK8   BANK9  BANK10  BANK1
      +1  BANK12  BANK13  BANK14  BANK15
  1165 ;;      Params:         1       0       0       0       0       0       0       0       0       0       0       0       
      +0       0       0       0       0
  1166 ;;      Locals:         8       0       0       0       0       0       0       0       0       0       0       0       
      +0       0       0       0       0
  1167 ;;      Temps:          2       0       0       0       0       0       0       0       0       0       0       0       
      +0       0       0       0       0
  1168 ;;      Totals:        11       0       0       0       0       0       0       0       0       0       0       0       
      +0       0       0       0       0
  1169 ;;Total ram usage:       11 bytes
  1170 ;; Hardware stack levels used: 1
  1171 ;; Hardware stack levels required when called: 3
  1172 ;; This function calls:
  1173 ;;		___fladd
  1174 ;;		___fldiv
  1175 ;;		___fltol
  1176 ;;		___xxtofl
  1177 ;; This function is called by:
  1178 ;;		_Uart_Init
  1179 ;; This function uses a non-reentrant model
  1180 ;;
  1181                           
  1182                           	psect	text3
  1183   00102E                     __ptext3:
  1184                           	callstack 0
  1185   00102E                     _Uart_Baud_Rate_Calculation:
  1186                           	callstack 25
  1187   00102E                     
  1188                           ;MCAL_Layer/USART/usart.c: 70:     float Baud_Rate_Temp = 0;
  1189   00102E  0E00               	movlw	0
  1190   001030  6E3B               	movwf	Uart_Baud_Rate_Calculation@Baud_Rate_Temp^0,c
  1191   001032  0E00               	movlw	0
  1192   001034  6E3C               	movwf	(Uart_Baud_Rate_Calculation@Baud_Rate_Temp+1)^0,c
  1193   001036  0E00               	movlw	0
  1194   001038  6E3D               	movwf	(Uart_Baud_Rate_Calculation@Baud_Rate_Temp+2)^0,c
  1195   00103A  0E00               	movlw	0
  1196   00103C  6E3E               	movwf	(Uart_Baud_Rate_Calculation@Baud_Rate_Temp+3)^0,c
  1197                           
  1198                           ;MCAL_Layer/USART/usart.c: 71:     switch(_eusart->baudrate_gen_gonfig){
  1199   00103E  EF41  F00A         	goto	l5176
  1200   001042                     l1253:
  1201                           
  1202                           ;MCAL_Layer/USART/usart.c: 73:             TXSTAbits.SYNC = 0;
  1203   001042  98AC               	bcf	172,4,c	;volatile
  1204                           
  1205                           ;MCAL_Layer/USART/usart.c: 74:             TXSTAbits.BRGH = 0;
  1206   001044  94AC               	bcf	172,2,c	;volatile
  1207                           
  1208                           ;MCAL_Layer/USART/usart.c: 75:             BAUDCONbits.BRG16 = 0;
  1209   001046  96B8               	bcf	184,3,c	;volatile
  1210   001048                     
  1211                           ;MCAL_Layer/USART/usart.c: 76:             Baud_Rate_Temp = ((8000000UL / (float)_eusart
      +                          ->baudrate) / 64) - 1;
  1212   001048  5038               	movf	Uart_Baud_Rate_Calculation@_eusart^0,w,c
  1213   00104A  6ED9               	movwf	fsr2l,c
  1214   00104C  6ADA               	clrf	fsr2h,c
  1215   00104E  CFDE F039          	movff	postinc2,??_Uart_Baud_Rate_Calculation
  1216   001052  CFDD F03A          	movff	postdec2,??_Uart_Baud_Rate_Calculation+1
  1217   001056  C039  F001         	movff	??_Uart_Baud_Rate_Calculation,___xxtofl@val
  1218   00105A  C03A  F002         	movff	??_Uart_Baud_Rate_Calculation+1,___xxtofl@val+1
  1219   00105E  6A03               	clrf	(___xxtofl@val+2)^0,c
  1220   001060  6A04               	clrf	(___xxtofl@val+3)^0,c
  1221   001062  0E00               	movlw	0
  1222   001064  ECB4  F00E         	call	___xxtofl
  1223   001068  C001  F013         	movff	?___xxtofl,___fldiv@a
  1224   00106C  C002  F014         	movff	?___xxtofl+1,___fldiv@a+1
  1225   001070  C003  F015         	movff	?___xxtofl+2,___fldiv@a+2
  1226   001074  C004  F016         	movff	?___xxtofl+3,___fldiv@a+3
  1227   001078  0E00               	movlw	0
  1228   00107A  6E0F               	movwf	___fldiv@b^0,c
  1229   00107C  0E24               	movlw	36
  1230   00107E  6E10               	movwf	(___fldiv@b+1)^0,c
  1231   001080  0EF4               	movlw	244
  1232   001082  6E11               	movwf	(___fldiv@b+2)^0,c
  1233   001084  0E4A               	movlw	74
  1234   001086  6E12               	movwf	(___fldiv@b+3)^0,c
  1235   001088  ECE7  F00C         	call	___fldiv	;wreg free
  1236   00108C  C00F  F03F         	movff	?___fldiv,_Uart_Baud_Rate_Calculation$4650
  1237   001090  C010  F040         	movff	?___fldiv+1,_Uart_Baud_Rate_Calculation$4650+1
  1238   001094  C011  F041         	movff	?___fldiv+2,_Uart_Baud_Rate_Calculation$4650+2
  1239   001098  C012  F042         	movff	?___fldiv+3,_Uart_Baud_Rate_Calculation$4650+3
  1240   00109C                     
  1241                           ;MCAL_Layer/USART/usart.c: 76:             Baud_Rate_Temp = ((8000000UL / (float)_eusart
      +                          ->baudrate) / 64) - 1;
  1242   00109C  0E00               	movlw	0
  1243   00109E  6E13               	movwf	___fldiv@a^0,c
  1244   0010A0  0E00               	movlw	0
  1245   0010A2  6E14               	movwf	(___fldiv@a+1)^0,c
  1246   0010A4  0E80               	movlw	128
  1247   0010A6  6E15               	movwf	(___fldiv@a+2)^0,c
  1248   0010A8  0E42               	movlw	66
  1249   0010AA  6E16               	movwf	(___fldiv@a+3)^0,c
  1250   0010AC  C03F  F00F         	movff	_Uart_Baud_Rate_Calculation$4650,___fldiv@b
  1251   0010B0  C040  F010         	movff	_Uart_Baud_Rate_Calculation$4650+1,___fldiv@b+1
  1252   0010B4  C041  F011         	movff	_Uart_Baud_Rate_Calculation$4650+2,___fldiv@b+2
  1253   0010B8  C042  F012         	movff	_Uart_Baud_Rate_Calculation$4650+3,___fldiv@b+3
  1254   0010BC  ECE7  F00C         	call	___fldiv	;wreg free
  1255   0010C0  C00F  F028         	movff	?___fldiv,___fladd@b
  1256   0010C4  C010  F029         	movff	?___fldiv+1,___fladd@b+1
  1257   0010C8  C011  F02A         	movff	?___fldiv+2,___fladd@b+2
  1258   0010CC  C012  F02B         	movff	?___fldiv+3,___fladd@b+3
  1259   0010D0  0E00               	movlw	0
  1260   0010D2  6E2C               	movwf	___fladd@a^0,c
  1261   0010D4  0E00               	movlw	0
  1262   0010D6  6E2D               	movwf	(___fladd@a+1)^0,c
  1263   0010D8  0E80               	movlw	128
  1264   0010DA  6E2E               	movwf	(___fladd@a+2)^0,c
  1265   0010DC  0EBF               	movlw	191
  1266   0010DE  6E2F               	movwf	(___fladd@a+3)^0,c
  1267   0010E0  EC87  F00A         	call	___fladd	;wreg free
  1268   0010E4  C028  F03B         	movff	?___fladd,Uart_Baud_Rate_Calculation@Baud_Rate_Temp
  1269   0010E8  C029  F03C         	movff	?___fladd+1,Uart_Baud_Rate_Calculation@Baud_Rate_Temp+1
  1270   0010EC  C02A  F03D         	movff	?___fladd+2,Uart_Baud_Rate_Calculation@Baud_Rate_Temp+2
  1271   0010F0  C02B  F03E         	movff	?___fladd+3,Uart_Baud_Rate_Calculation@Baud_Rate_Temp+3
  1272                           
  1273                           ;MCAL_Layer/USART/usart.c: 77:             break;
  1274   0010F4  EF6B  F00A         	goto	l5178
  1275   0010F8                     l1255:
  1276                           
  1277                           ;MCAL_Layer/USART/usart.c: 79:             TXSTAbits.SYNC = 0;
  1278   0010F8  98AC               	bcf	172,4,c	;volatile
  1279                           
  1280                           ;MCAL_Layer/USART/usart.c: 80:             TXSTAbits.BRGH = 1;
  1281   0010FA  84AC               	bsf	172,2,c	;volatile
  1282                           
  1283                           ;MCAL_Layer/USART/usart.c: 81:             BAUDCONbits.BRG16 = 0;
  1284   0010FC  96B8               	bcf	184,3,c	;volatile
  1285   0010FE                     
  1286                           ;MCAL_Layer/USART/usart.c: 82:             Baud_Rate_Temp = ((8000000UL / (float)_eusart
      +                          ->baudrate) / 16) - 1;
  1287   0010FE  5038               	movf	Uart_Baud_Rate_Calculation@_eusart^0,w,c
  1288   001100  6ED9               	movwf	fsr2l,c
  1289   001102  6ADA               	clrf	fsr2h,c
  1290   001104  CFDE F039          	movff	postinc2,??_Uart_Baud_Rate_Calculation
  1291   001108  CFDD F03A          	movff	postdec2,??_Uart_Baud_Rate_Calculation+1
  1292   00110C  C039  F001         	movff	??_Uart_Baud_Rate_Calculation,___xxtofl@val
  1293   001110  C03A  F002         	movff	??_Uart_Baud_Rate_Calculation+1,___xxtofl@val+1
  1294   001114  6A03               	clrf	(___xxtofl@val+2)^0,c
  1295   001116  6A04               	clrf	(___xxtofl@val+3)^0,c
  1296   001118  0E00               	movlw	0
  1297   00111A  ECB4  F00E         	call	___xxtofl
  1298   00111E  C001  F013         	movff	?___xxtofl,___fldiv@a
  1299   001122  C002  F014         	movff	?___xxtofl+1,___fldiv@a+1
  1300   001126  C003  F015         	movff	?___xxtofl+2,___fldiv@a+2
  1301   00112A  C004  F016         	movff	?___xxtofl+3,___fldiv@a+3
  1302   00112E  0E00               	movlw	0
  1303   001130  6E0F               	movwf	___fldiv@b^0,c
  1304   001132  0E24               	movlw	36
  1305   001134  6E10               	movwf	(___fldiv@b+1)^0,c
  1306   001136  0EF4               	movlw	244
  1307   001138  6E11               	movwf	(___fldiv@b+2)^0,c
  1308   00113A  0E4A               	movlw	74
  1309   00113C  6E12               	movwf	(___fldiv@b+3)^0,c
  1310   00113E  ECE7  F00C         	call	___fldiv	;wreg free
  1311   001142  C00F  F03F         	movff	?___fldiv,_Uart_Baud_Rate_Calculation$4650
  1312   001146  C010  F040         	movff	?___fldiv+1,_Uart_Baud_Rate_Calculation$4650+1
  1313   00114A  C011  F041         	movff	?___fldiv+2,_Uart_Baud_Rate_Calculation$4650+2
  1314   00114E  C012  F042         	movff	?___fldiv+3,_Uart_Baud_Rate_Calculation$4650+3
  1315   001152                     
  1316                           ;MCAL_Layer/USART/usart.c: 82:             Baud_Rate_Temp = ((8000000UL / (float)_eusart
      +                          ->baudrate) / 16) - 1;
  1317   001152  0E00               	movlw	0
  1318   001154  6E13               	movwf	___fldiv@a^0,c
  1319   001156  0E00               	movlw	0
  1320   001158  6E14               	movwf	(___fldiv@a+1)^0,c
  1321   00115A  0E80               	movlw	128
  1322   00115C  6E15               	movwf	(___fldiv@a+2)^0,c
  1323   00115E  0E41               	movlw	65
  1324   001160  6E16               	movwf	(___fldiv@a+3)^0,c
  1325   001162  C03F  F00F         	movff	_Uart_Baud_Rate_Calculation$4650,___fldiv@b
  1326   001166  C040  F010         	movff	_Uart_Baud_Rate_Calculation$4650+1,___fldiv@b+1
  1327   00116A  C041  F011         	movff	_Uart_Baud_Rate_Calculation$4650+2,___fldiv@b+2
  1328   00116E  C042  F012         	movff	_Uart_Baud_Rate_Calculation$4650+3,___fldiv@b+3
  1329   001172  ECE7  F00C         	call	___fldiv	;wreg free
  1330   001176  C00F  F028         	movff	?___fldiv,___fladd@b
  1331   00117A  C010  F029         	movff	?___fldiv+1,___fladd@b+1
  1332   00117E  C011  F02A         	movff	?___fldiv+2,___fladd@b+2
  1333   001182  C012  F02B         	movff	?___fldiv+3,___fladd@b+3
  1334   001186  0E00               	movlw	0
  1335   001188  6E2C               	movwf	___fladd@a^0,c
  1336   00118A  0E00               	movlw	0
  1337   00118C  6E2D               	movwf	(___fladd@a+1)^0,c
  1338   00118E  0E80               	movlw	128
  1339   001190  6E2E               	movwf	(___fladd@a+2)^0,c
  1340   001192  0EBF               	movlw	191
  1341   001194  6E2F               	movwf	(___fladd@a+3)^0,c
  1342   001196  EC87  F00A         	call	___fladd	;wreg free
  1343   00119A  C028  F03B         	movff	?___fladd,Uart_Baud_Rate_Calculation@Baud_Rate_Temp
  1344   00119E  C029  F03C         	movff	?___fladd+1,Uart_Baud_Rate_Calculation@Baud_Rate_Temp+1
  1345   0011A2  C02A  F03D         	movff	?___fladd+2,Uart_Baud_Rate_Calculation@Baud_Rate_Temp+2
  1346   0011A6  C02B  F03E         	movff	?___fladd+3,Uart_Baud_Rate_Calculation@Baud_Rate_Temp+3
  1347                           
  1348                           ;MCAL_Layer/USART/usart.c: 83:             break;
  1349   0011AA  EF6B  F00A         	goto	l5178
  1350   0011AE                     l1256:
  1351                           
  1352                           ;MCAL_Layer/USART/usart.c: 85:             TXSTAbits.SYNC = 0;
  1353   0011AE  98AC               	bcf	172,4,c	;volatile
  1354                           
  1355                           ;MCAL_Layer/USART/usart.c: 86:             TXSTAbits.BRGH = 0;
  1356   0011B0  94AC               	bcf	172,2,c	;volatile
  1357                           
  1358                           ;MCAL_Layer/USART/usart.c: 87:             BAUDCONbits.BRG16 = 1;
  1359   0011B2  86B8               	bsf	184,3,c	;volatile
  1360   0011B4                     
  1361                           ;MCAL_Layer/USART/usart.c: 88:             Baud_Rate_Temp = ((8000000UL / (float)_eusart
      +                          ->baudrate) / 16) - 1;
  1362   0011B4  5038               	movf	Uart_Baud_Rate_Calculation@_eusart^0,w,c
  1363   0011B6  6ED9               	movwf	fsr2l,c
  1364   0011B8  6ADA               	clrf	fsr2h,c
  1365   0011BA  CFDE F039          	movff	postinc2,??_Uart_Baud_Rate_Calculation
  1366   0011BE  CFDD F03A          	movff	postdec2,??_Uart_Baud_Rate_Calculation+1
  1367   0011C2  C039  F001         	movff	??_Uart_Baud_Rate_Calculation,___xxtofl@val
  1368   0011C6  C03A  F002         	movff	??_Uart_Baud_Rate_Calculation+1,___xxtofl@val+1
  1369   0011CA  6A03               	clrf	(___xxtofl@val+2)^0,c
  1370   0011CC  6A04               	clrf	(___xxtofl@val+3)^0,c
  1371   0011CE  0E00               	movlw	0
  1372   0011D0  ECB4  F00E         	call	___xxtofl
  1373   0011D4  C001  F013         	movff	?___xxtofl,___fldiv@a
  1374   0011D8  C002  F014         	movff	?___xxtofl+1,___fldiv@a+1
  1375   0011DC  C003  F015         	movff	?___xxtofl+2,___fldiv@a+2
  1376   0011E0  C004  F016         	movff	?___xxtofl+3,___fldiv@a+3
  1377   0011E4  0E00               	movlw	0
  1378   0011E6  6E0F               	movwf	___fldiv@b^0,c
  1379   0011E8  0E24               	movlw	36
  1380   0011EA  6E10               	movwf	(___fldiv@b+1)^0,c
  1381   0011EC  0EF4               	movlw	244
  1382   0011EE  6E11               	movwf	(___fldiv@b+2)^0,c
  1383   0011F0  0E4A               	movlw	74
  1384   0011F2  6E12               	movwf	(___fldiv@b+3)^0,c
  1385   0011F4  ECE7  F00C         	call	___fldiv	;wreg free
  1386   0011F8  C00F  F03F         	movff	?___fldiv,_Uart_Baud_Rate_Calculation$4650
  1387   0011FC  C010  F040         	movff	?___fldiv+1,_Uart_Baud_Rate_Calculation$4650+1
  1388   001200  C011  F041         	movff	?___fldiv+2,_Uart_Baud_Rate_Calculation$4650+2
  1389   001204  C012  F042         	movff	?___fldiv+3,_Uart_Baud_Rate_Calculation$4650+3
  1390   001208                     
  1391                           ;MCAL_Layer/USART/usart.c: 88:             Baud_Rate_Temp = ((8000000UL / (float)_eusart
      +                          ->baudrate) / 16) - 1;
  1392   001208  0E00               	movlw	0
  1393   00120A  6E13               	movwf	___fldiv@a^0,c
  1394   00120C  0E00               	movlw	0
  1395   00120E  6E14               	movwf	(___fldiv@a+1)^0,c
  1396   001210  0E80               	movlw	128
  1397   001212  6E15               	movwf	(___fldiv@a+2)^0,c
  1398   001214  0E41               	movlw	65
  1399   001216  6E16               	movwf	(___fldiv@a+3)^0,c
  1400   001218  C03F  F00F         	movff	_Uart_Baud_Rate_Calculation$4650,___fldiv@b
  1401   00121C  C040  F010         	movff	_Uart_Baud_Rate_Calculation$4650+1,___fldiv@b+1
  1402   001220  C041  F011         	movff	_Uart_Baud_Rate_Calculation$4650+2,___fldiv@b+2
  1403   001224  C042  F012         	movff	_Uart_Baud_Rate_Calculation$4650+3,___fldiv@b+3
  1404   001228  ECE7  F00C         	call	___fldiv	;wreg free
  1405   00122C  C00F  F028         	movff	?___fldiv,___fladd@b
  1406   001230  C010  F029         	movff	?___fldiv+1,___fladd@b+1
  1407   001234  C011  F02A         	movff	?___fldiv+2,___fladd@b+2
  1408   001238  C012  F02B         	movff	?___fldiv+3,___fladd@b+3
  1409   00123C  0E00               	movlw	0
  1410   00123E  6E2C               	movwf	___fladd@a^0,c
  1411   001240  0E00               	movlw	0
  1412   001242  6E2D               	movwf	(___fladd@a+1)^0,c
  1413   001244  0E80               	movlw	128
  1414   001246  6E2E               	movwf	(___fladd@a+2)^0,c
  1415   001248  0EBF               	movlw	191
  1416   00124A  6E2F               	movwf	(___fladd@a+3)^0,c
  1417   00124C  EC87  F00A         	call	___fladd	;wreg free
  1418   001250  C028  F03B         	movff	?___fladd,Uart_Baud_Rate_Calculation@Baud_Rate_Temp
  1419   001254  C029  F03C         	movff	?___fladd+1,Uart_Baud_Rate_Calculation@Baud_Rate_Temp+1
  1420   001258  C02A  F03D         	movff	?___fladd+2,Uart_Baud_Rate_Calculation@Baud_Rate_Temp+2
  1421   00125C  C02B  F03E         	movff	?___fladd+3,Uart_Baud_Rate_Calculation@Baud_Rate_Temp+3
  1422                           
  1423                           ;MCAL_Layer/USART/usart.c: 89:             break;
  1424   001260  EF6B  F00A         	goto	l5178
  1425   001264                     l1257:
  1426                           
  1427                           ;MCAL_Layer/USART/usart.c: 91:             TXSTAbits.SYNC = 0;
  1428   001264  98AC               	bcf	172,4,c	;volatile
  1429                           
  1430                           ;MCAL_Layer/USART/usart.c: 92:             TXSTAbits.BRGH = 1;
  1431   001266  84AC               	bsf	172,2,c	;volatile
  1432                           
  1433                           ;MCAL_Layer/USART/usart.c: 93:             BAUDCONbits.BRG16 = 1;
  1434   001268  86B8               	bsf	184,3,c	;volatile
  1435   00126A                     
  1436                           ;MCAL_Layer/USART/usart.c: 94:             Baud_Rate_Temp = ((8000000UL / (float)_eusart
      +                          ->baudrate) / 4) - 1;
  1437   00126A  5038               	movf	Uart_Baud_Rate_Calculation@_eusart^0,w,c
  1438   00126C  6ED9               	movwf	fsr2l,c
  1439   00126E  6ADA               	clrf	fsr2h,c
  1440   001270  CFDE F039          	movff	postinc2,??_Uart_Baud_Rate_Calculation
  1441   001274  CFDD F03A          	movff	postdec2,??_Uart_Baud_Rate_Calculation+1
  1442   001278  C039  F001         	movff	??_Uart_Baud_Rate_Calculation,___xxtofl@val
  1443   00127C  C03A  F002         	movff	??_Uart_Baud_Rate_Calculation+1,___xxtofl@val+1
  1444   001280  6A03               	clrf	(___xxtofl@val+2)^0,c
  1445   001282  6A04               	clrf	(___xxtofl@val+3)^0,c
  1446   001284  0E00               	movlw	0
  1447   001286  ECB4  F00E         	call	___xxtofl
  1448   00128A  C001  F013         	movff	?___xxtofl,___fldiv@a
  1449   00128E  C002  F014         	movff	?___xxtofl+1,___fldiv@a+1
  1450   001292  C003  F015         	movff	?___xxtofl+2,___fldiv@a+2
  1451   001296  C004  F016         	movff	?___xxtofl+3,___fldiv@a+3
  1452   00129A  0E00               	movlw	0
  1453   00129C  6E0F               	movwf	___fldiv@b^0,c
  1454   00129E  0E24               	movlw	36
  1455   0012A0  6E10               	movwf	(___fldiv@b+1)^0,c
  1456   0012A2  0EF4               	movlw	244
  1457   0012A4  6E11               	movwf	(___fldiv@b+2)^0,c
  1458   0012A6  0E4A               	movlw	74
  1459   0012A8  6E12               	movwf	(___fldiv@b+3)^0,c
  1460   0012AA  ECE7  F00C         	call	___fldiv	;wreg free
  1461   0012AE  C00F  F03F         	movff	?___fldiv,_Uart_Baud_Rate_Calculation$4650
  1462   0012B2  C010  F040         	movff	?___fldiv+1,_Uart_Baud_Rate_Calculation$4650+1
  1463   0012B6  C011  F041         	movff	?___fldiv+2,_Uart_Baud_Rate_Calculation$4650+2
  1464   0012BA  C012  F042         	movff	?___fldiv+3,_Uart_Baud_Rate_Calculation$4650+3
  1465   0012BE                     
  1466                           ;MCAL_Layer/USART/usart.c: 94:             Baud_Rate_Temp = ((8000000UL / (float)_eusart
      +                          ->baudrate) / 4) - 1;
  1467   0012BE  0E00               	movlw	0
  1468   0012C0  6E13               	movwf	___fldiv@a^0,c
  1469   0012C2  0E00               	movlw	0
  1470   0012C4  6E14               	movwf	(___fldiv@a+1)^0,c
  1471   0012C6  0E80               	movlw	128
  1472   0012C8  6E15               	movwf	(___fldiv@a+2)^0,c
  1473   0012CA  0E40               	movlw	64
  1474   0012CC  6E16               	movwf	(___fldiv@a+3)^0,c
  1475   0012CE  C03F  F00F         	movff	_Uart_Baud_Rate_Calculation$4650,___fldiv@b
  1476   0012D2  C040  F010         	movff	_Uart_Baud_Rate_Calculation$4650+1,___fldiv@b+1
  1477   0012D6  C041  F011         	movff	_Uart_Baud_Rate_Calculation$4650+2,___fldiv@b+2
  1478   0012DA  C042  F012         	movff	_Uart_Baud_Rate_Calculation$4650+3,___fldiv@b+3
  1479   0012DE  ECE7  F00C         	call	___fldiv	;wreg free
  1480   0012E2  C00F  F028         	movff	?___fldiv,___fladd@b
  1481   0012E6  C010  F029         	movff	?___fldiv+1,___fladd@b+1
  1482   0012EA  C011  F02A         	movff	?___fldiv+2,___fladd@b+2
  1483   0012EE  C012  F02B         	movff	?___fldiv+3,___fladd@b+3
  1484   0012F2  0E00               	movlw	0
  1485   0012F4  6E2C               	movwf	___fladd@a^0,c
  1486   0012F6  0E00               	movlw	0
  1487   0012F8  6E2D               	movwf	(___fladd@a+1)^0,c
  1488   0012FA  0E80               	movlw	128
  1489   0012FC  6E2E               	movwf	(___fladd@a+2)^0,c
  1490   0012FE  0EBF               	movlw	191
  1491   001300  6E2F               	movwf	(___fladd@a+3)^0,c
  1492   001302  EC87  F00A         	call	___fladd	;wreg free
  1493   001306  C028  F03B         	movff	?___fladd,Uart_Baud_Rate_Calculation@Baud_Rate_Temp
  1494   00130A  C029  F03C         	movff	?___fladd+1,Uart_Baud_Rate_Calculation@Baud_Rate_Temp+1
  1495   00130E  C02A  F03D         	movff	?___fladd+2,Uart_Baud_Rate_Calculation@Baud_Rate_Temp+2
  1496   001312  C02B  F03E         	movff	?___fladd+3,Uart_Baud_Rate_Calculation@Baud_Rate_Temp+3
  1497                           
  1498                           ;MCAL_Layer/USART/usart.c: 95:             break;
  1499   001316  EF6B  F00A         	goto	l5178
  1500   00131A                     l1258:
  1501                           
  1502                           ;MCAL_Layer/USART/usart.c: 97:             TXSTAbits.SYNC = 1;
  1503   00131A  88AC               	bsf	172,4,c	;volatile
  1504                           
  1505                           ;MCAL_Layer/USART/usart.c: 98:             BAUDCONbits.BRG16 = 0;
  1506   00131C  96B8               	bcf	184,3,c	;volatile
  1507   00131E                     
  1508                           ;MCAL_Layer/USART/usart.c: 99:             Baud_Rate_Temp = ((8000000UL / (float)_eusart
      +                          ->baudrate) / 4) - 1;
  1509   00131E  5038               	movf	Uart_Baud_Rate_Calculation@_eusart^0,w,c
  1510   001320  6ED9               	movwf	fsr2l,c
  1511   001322  6ADA               	clrf	fsr2h,c
  1512   001324  CFDE F039          	movff	postinc2,??_Uart_Baud_Rate_Calculation
  1513   001328  CFDD F03A          	movff	postdec2,??_Uart_Baud_Rate_Calculation+1
  1514   00132C  C039  F001         	movff	??_Uart_Baud_Rate_Calculation,___xxtofl@val
  1515   001330  C03A  F002         	movff	??_Uart_Baud_Rate_Calculation+1,___xxtofl@val+1
  1516   001334  6A03               	clrf	(___xxtofl@val+2)^0,c
  1517   001336  6A04               	clrf	(___xxtofl@val+3)^0,c
  1518   001338  0E00               	movlw	0
  1519   00133A  ECB4  F00E         	call	___xxtofl
  1520   00133E  C001  F013         	movff	?___xxtofl,___fldiv@a
  1521   001342  C002  F014         	movff	?___xxtofl+1,___fldiv@a+1
  1522   001346  C003  F015         	movff	?___xxtofl+2,___fldiv@a+2
  1523   00134A  C004  F016         	movff	?___xxtofl+3,___fldiv@a+3
  1524   00134E  0E00               	movlw	0
  1525   001350  6E0F               	movwf	___fldiv@b^0,c
  1526   001352  0E24               	movlw	36
  1527   001354  6E10               	movwf	(___fldiv@b+1)^0,c
  1528   001356  0EF4               	movlw	244
  1529   001358  6E11               	movwf	(___fldiv@b+2)^0,c
  1530   00135A  0E4A               	movlw	74
  1531   00135C  6E12               	movwf	(___fldiv@b+3)^0,c
  1532   00135E  ECE7  F00C         	call	___fldiv	;wreg free
  1533   001362  C00F  F03F         	movff	?___fldiv,_Uart_Baud_Rate_Calculation$4650
  1534   001366  C010  F040         	movff	?___fldiv+1,_Uart_Baud_Rate_Calculation$4650+1
  1535   00136A  C011  F041         	movff	?___fldiv+2,_Uart_Baud_Rate_Calculation$4650+2
  1536   00136E  C012  F042         	movff	?___fldiv+3,_Uart_Baud_Rate_Calculation$4650+3
  1537   001372                     
  1538                           ;MCAL_Layer/USART/usart.c: 99:             Baud_Rate_Temp = ((8000000UL / (float)_eusart
      +                          ->baudrate) / 4) - 1;
  1539   001372  0E00               	movlw	0
  1540   001374  6E13               	movwf	___fldiv@a^0,c
  1541   001376  0E00               	movlw	0
  1542   001378  6E14               	movwf	(___fldiv@a+1)^0,c
  1543   00137A  0E80               	movlw	128
  1544   00137C  6E15               	movwf	(___fldiv@a+2)^0,c
  1545   00137E  0E40               	movlw	64
  1546   001380  6E16               	movwf	(___fldiv@a+3)^0,c
  1547   001382  C03F  F00F         	movff	_Uart_Baud_Rate_Calculation$4650,___fldiv@b
  1548   001386  C040  F010         	movff	_Uart_Baud_Rate_Calculation$4650+1,___fldiv@b+1
  1549   00138A  C041  F011         	movff	_Uart_Baud_Rate_Calculation$4650+2,___fldiv@b+2
  1550   00138E  C042  F012         	movff	_Uart_Baud_Rate_Calculation$4650+3,___fldiv@b+3
  1551   001392  ECE7  F00C         	call	___fldiv	;wreg free
  1552   001396  C00F  F028         	movff	?___fldiv,___fladd@b
  1553   00139A  C010  F029         	movff	?___fldiv+1,___fladd@b+1
  1554   00139E  C011  F02A         	movff	?___fldiv+2,___fladd@b+2
  1555   0013A2  C012  F02B         	movff	?___fldiv+3,___fladd@b+3
  1556   0013A6  0E00               	movlw	0
  1557   0013A8  6E2C               	movwf	___fladd@a^0,c
  1558   0013AA  0E00               	movlw	0
  1559   0013AC  6E2D               	movwf	(___fladd@a+1)^0,c
  1560   0013AE  0E80               	movlw	128
  1561   0013B0  6E2E               	movwf	(___fladd@a+2)^0,c
  1562   0013B2  0EBF               	movlw	191
  1563   0013B4  6E2F               	movwf	(___fladd@a+3)^0,c
  1564   0013B6  EC87  F00A         	call	___fladd	;wreg free
  1565   0013BA  C028  F03B         	movff	?___fladd,Uart_Baud_Rate_Calculation@Baud_Rate_Temp
  1566   0013BE  C029  F03C         	movff	?___fladd+1,Uart_Baud_Rate_Calculation@Baud_Rate_Temp+1
  1567   0013C2  C02A  F03D         	movff	?___fladd+2,Uart_Baud_Rate_Calculation@Baud_Rate_Temp+2
  1568   0013C6  C02B  F03E         	movff	?___fladd+3,Uart_Baud_Rate_Calculation@Baud_Rate_Temp+3
  1569                           
  1570                           ;MCAL_Layer/USART/usart.c: 100:             break;
  1571   0013CA  EF6B  F00A         	goto	l5178
  1572   0013CE                     l1259:
  1573                           
  1574                           ;MCAL_Layer/USART/usart.c: 102:             TXSTAbits.SYNC = 1;
  1575   0013CE  88AC               	bsf	172,4,c	;volatile
  1576                           
  1577                           ;MCAL_Layer/USART/usart.c: 103:             BAUDCONbits.BRG16 = 1;
  1578   0013D0  86B8               	bsf	184,3,c	;volatile
  1579   0013D2                     
  1580                           ;MCAL_Layer/USART/usart.c: 104:             Baud_Rate_Temp = ((8000000UL / (float)_eusar
      +                          t->baudrate) / 4) - 1;
  1581   0013D2  5038               	movf	Uart_Baud_Rate_Calculation@_eusart^0,w,c
  1582   0013D4  6ED9               	movwf	fsr2l,c
  1583   0013D6  6ADA               	clrf	fsr2h,c
  1584   0013D8  CFDE F039          	movff	postinc2,??_Uart_Baud_Rate_Calculation
  1585   0013DC  CFDD F03A          	movff	postdec2,??_Uart_Baud_Rate_Calculation+1
  1586   0013E0  C039  F001         	movff	??_Uart_Baud_Rate_Calculation,___xxtofl@val
  1587   0013E4  C03A  F002         	movff	??_Uart_Baud_Rate_Calculation+1,___xxtofl@val+1
  1588   0013E8  6A03               	clrf	(___xxtofl@val+2)^0,c
  1589   0013EA  6A04               	clrf	(___xxtofl@val+3)^0,c
  1590   0013EC  0E00               	movlw	0
  1591   0013EE  ECB4  F00E         	call	___xxtofl
  1592   0013F2  C001  F013         	movff	?___xxtofl,___fldiv@a
  1593   0013F6  C002  F014         	movff	?___xxtofl+1,___fldiv@a+1
  1594   0013FA  C003  F015         	movff	?___xxtofl+2,___fldiv@a+2
  1595   0013FE  C004  F016         	movff	?___xxtofl+3,___fldiv@a+3
  1596   001402  0E00               	movlw	0
  1597   001404  6E0F               	movwf	___fldiv@b^0,c
  1598   001406  0E24               	movlw	36
  1599   001408  6E10               	movwf	(___fldiv@b+1)^0,c
  1600   00140A  0EF4               	movlw	244
  1601   00140C  6E11               	movwf	(___fldiv@b+2)^0,c
  1602   00140E  0E4A               	movlw	74
  1603   001410  6E12               	movwf	(___fldiv@b+3)^0,c
  1604   001412  ECE7  F00C         	call	___fldiv	;wreg free
  1605   001416  C00F  F03F         	movff	?___fldiv,_Uart_Baud_Rate_Calculation$4650
  1606   00141A  C010  F040         	movff	?___fldiv+1,_Uart_Baud_Rate_Calculation$4650+1
  1607   00141E  C011  F041         	movff	?___fldiv+2,_Uart_Baud_Rate_Calculation$4650+2
  1608   001422  C012  F042         	movff	?___fldiv+3,_Uart_Baud_Rate_Calculation$4650+3
  1609   001426                     
  1610                           ;MCAL_Layer/USART/usart.c: 104:             Baud_Rate_Temp = ((8000000UL / (float)_eusar
      +                          t->baudrate) / 4) - 1;
  1611   001426  0E00               	movlw	0
  1612   001428  6E13               	movwf	___fldiv@a^0,c
  1613   00142A  0E00               	movlw	0
  1614   00142C  6E14               	movwf	(___fldiv@a+1)^0,c
  1615   00142E  0E80               	movlw	128
  1616   001430  6E15               	movwf	(___fldiv@a+2)^0,c
  1617   001432  0E40               	movlw	64
  1618   001434  6E16               	movwf	(___fldiv@a+3)^0,c
  1619   001436  C03F  F00F         	movff	_Uart_Baud_Rate_Calculation$4650,___fldiv@b
  1620   00143A  C040  F010         	movff	_Uart_Baud_Rate_Calculation$4650+1,___fldiv@b+1
  1621   00143E  C041  F011         	movff	_Uart_Baud_Rate_Calculation$4650+2,___fldiv@b+2
  1622   001442  C042  F012         	movff	_Uart_Baud_Rate_Calculation$4650+3,___fldiv@b+3
  1623   001446  ECE7  F00C         	call	___fldiv	;wreg free
  1624   00144A  C00F  F028         	movff	?___fldiv,___fladd@b
  1625   00144E  C010  F029         	movff	?___fldiv+1,___fladd@b+1
  1626   001452  C011  F02A         	movff	?___fldiv+2,___fladd@b+2
  1627   001456  C012  F02B         	movff	?___fldiv+3,___fladd@b+3
  1628   00145A  0E00               	movlw	0
  1629   00145C  6E2C               	movwf	___fladd@a^0,c
  1630   00145E  0E00               	movlw	0
  1631   001460  6E2D               	movwf	(___fladd@a+1)^0,c
  1632   001462  0E80               	movlw	128
  1633   001464  6E2E               	movwf	(___fladd@a+2)^0,c
  1634   001466  0EBF               	movlw	191
  1635   001468  6E2F               	movwf	(___fladd@a+3)^0,c
  1636   00146A  EC87  F00A         	call	___fladd	;wreg free
  1637   00146E  C028  F03B         	movff	?___fladd,Uart_Baud_Rate_Calculation@Baud_Rate_Temp
  1638   001472  C029  F03C         	movff	?___fladd+1,Uart_Baud_Rate_Calculation@Baud_Rate_Temp+1
  1639   001476  C02A  F03D         	movff	?___fladd+2,Uart_Baud_Rate_Calculation@Baud_Rate_Temp+2
  1640   00147A  C02B  F03E         	movff	?___fladd+3,Uart_Baud_Rate_Calculation@Baud_Rate_Temp+3
  1641                           
  1642                           ;MCAL_Layer/USART/usart.c: 105:             break;
  1643   00147E  EF6B  F00A         	goto	l5178
  1644   001482                     l5176:
  1645   001482  5038               	movf	Uart_Baud_Rate_Calculation@_eusart^0,w,c
  1646   001484  6ED9               	movwf	fsr2l,c
  1647   001486  6ADA               	clrf	fsr2h,c
  1648   001488  0E02               	movlw	2
  1649   00148A  26D9               	addwf	fsr2l,f,c
  1650   00148C  50DF               	movf	indf2,w,c
  1651   00148E  6E39               	movwf	??_Uart_Baud_Rate_Calculation^0,c
  1652   001490  6A3A               	clrf	(??_Uart_Baud_Rate_Calculation+1)^0,c
  1653                           
  1654                           ; Switch on 2 bytes has been partitioned into a top level switch of size 1, and 1 sub-sw
      +                          itches
  1655                           ; Switch size 1, requested type "simple"
  1656                           ; Number of cases is 1, Range of values is 0 to 0
  1657                           ; switch strategies available:
  1658                           ; Name         Instructions Cycles
  1659                           ; simple_byte            4     3 (average)
  1660                           ;	Chosen strategy is simple_byte
  1661   001492  503A               	movf	(??_Uart_Baud_Rate_Calculation+1)^0,w,c
  1662   001494  0A00               	xorlw	0	; case 0
  1663   001496  B4D8               	btfsc	status,2,c
  1664   001498  EF50  F00A         	goto	l7538
  1665   00149C  EF6B  F00A         	goto	l5178
  1666   0014A0                     l7538:
  1667                           
  1668                           ; Switch size 1, requested type "simple"
  1669                           ; Number of cases is 6, Range of values is 0 to 5
  1670                           ; switch strategies available:
  1671                           ; Name         Instructions Cycles
  1672                           ; simple_byte           19    10 (average)
  1673                           ;	Chosen strategy is simple_byte
  1674   0014A0  5039               	movf	??_Uart_Baud_Rate_Calculation^0,w,c
  1675   0014A2  0A00               	xorlw	0	; case 0
  1676   0014A4  B4D8               	btfsc	status,2,c
  1677   0014A6  EF21  F008         	goto	l1253
  1678   0014AA  0A01               	xorlw	1	; case 1
  1679   0014AC  B4D8               	btfsc	status,2,c
  1680   0014AE  EF7C  F008         	goto	l1255
  1681   0014B2  0A03               	xorlw	3	; case 2
  1682   0014B4  B4D8               	btfsc	status,2,c
  1683   0014B6  EFD7  F008         	goto	l1256
  1684   0014BA  0A01               	xorlw	1	; case 3
  1685   0014BC  B4D8               	btfsc	status,2,c
  1686   0014BE  EF32  F009         	goto	l1257
  1687   0014C2  0A07               	xorlw	7	; case 4
  1688   0014C4  B4D8               	btfsc	status,2,c
  1689   0014C6  EF8D  F009         	goto	l1258
  1690   0014CA  0A01               	xorlw	1	; case 5
  1691   0014CC  B4D8               	btfsc	status,2,c
  1692   0014CE  EFE7  F009         	goto	l1259
  1693   0014D2  EF6B  F00A         	goto	l5178
  1694   0014D6                     l5178:
  1695                           
  1696                           ;MCAL_Layer/USART/usart.c: 108:     SPBRG = (u8)((u32)Baud_Rate_Temp);
  1697   0014D6  C03B  F001         	movff	Uart_Baud_Rate_Calculation@Baud_Rate_Temp,___fltol@f1
  1698   0014DA  C03C  F002         	movff	Uart_Baud_Rate_Calculation@Baud_Rate_Temp+1,___fltol@f1+1
  1699   0014DE  C03D  F003         	movff	Uart_Baud_Rate_Calculation@Baud_Rate_Temp+2,___fltol@f1+2
  1700   0014E2  C03E  F004         	movff	Uart_Baud_Rate_Calculation@Baud_Rate_Temp+3,___fltol@f1+3
  1701   0014E6  ECB2  F010         	call	___fltol	;wreg free
  1702   0014EA  5001               	movf	?___fltol^0,w,c
  1703   0014EC  6EAF               	movwf	175,c	;volatile
  1704                           
  1705                           ;MCAL_Layer/USART/usart.c: 109:     SPBRGH = (u8)(((u32)Baud_Rate_Temp) >> 8);
  1706   0014EE  C03B  F001         	movff	Uart_Baud_Rate_Calculation@Baud_Rate_Temp,___fltol@f1
  1707   0014F2  C03C  F002         	movff	Uart_Baud_Rate_Calculation@Baud_Rate_Temp+1,___fltol@f1+1
  1708   0014F6  C03D  F003         	movff	Uart_Baud_Rate_Calculation@Baud_Rate_Temp+2,___fltol@f1+2
  1709   0014FA  C03E  F004         	movff	Uart_Baud_Rate_Calculation@Baud_Rate_Temp+3,___fltol@f1+3
  1710   0014FE  ECB2  F010         	call	___fltol	;wreg free
  1711   001502  C002  F001         	movff	?___fltol+1,?___fltol
  1712   001506  6A02               	clrf	(?___fltol+1)^0,c
  1713   001508  5001               	movf	?___fltol^0,w,c
  1714   00150A  6EB0               	movwf	176,c	;volatile
  1715   00150C  0012               	return		;funcret
  1716   00150E                     __end_of_Uart_Baud_Rate_Calculation:
  1717                           	callstack 0
  1718                           
  1719 ;; *************** function ___xxtofl *****************
  1720 ;; Defined at:
  1721 ;;		line 10 in file "D:\CodingPrograms\xc8\pic\sources\c99\common\xxtofl.c"
  1722 ;; Parameters:    Size  Location     Type
  1723 ;;  sign            1    wreg     unsigned char 
  1724 ;;  val             4    0[COMRAM] long 
  1725 ;; Auto vars:     Size  Location     Type
  1726 ;;  sign            1    8[COMRAM] unsigned char 
  1727 ;;  arg             4   10[COMRAM] unsigned long 
  1728 ;;  exp             1    9[COMRAM] unsigned char 
  1729 ;; Return value:  Size  Location     Type
  1730 ;;                  4    0[COMRAM] unsigned char 
  1731 ;; Registers used:
  1732 ;;		wreg, status,2, status,0
  1733 ;; Tracked objects:
  1734 ;;		On entry : 0/0
  1735 ;;		On exit  : 0/0
  1736 ;;		Unchanged: 0/0
  1737 ;; Data sizes:     COMRAM   BANK0   BANK1   BANK2   BANK3   BANK4   BANK5   BANK6   BANK7   BANK8   BANK9  BANK10  BANK1
      +1  BANK12  BANK13  BANK14  BANK15
  1738 ;;      Params:         4       0       0       0       0       0       0       0       0       0       0       0       
      +0       0       0       0       0
  1739 ;;      Locals:         6       0       0       0       0       0       0       0       0       0       0       0       
      +0       0       0       0       0
  1740 ;;      Temps:          4       0       0       0       0       0       0       0       0       0       0       0       
      +0       0       0       0       0
  1741 ;;      Totals:        14       0       0       0       0       0       0       0       0       0       0       0       
      +0       0       0       0       0
  1742 ;;Total ram usage:       14 bytes
  1743 ;; Hardware stack levels used: 1
  1744 ;; Hardware stack levels required when called: 2
  1745 ;; This function calls:
  1746 ;;		Nothing
  1747 ;; This function is called by:
  1748 ;;		_Uart_Baud_Rate_Calculation
  1749 ;;		_CCP_Init
  1750 ;;		_CCP_PWM_Set_Duty
  1751 ;; This function uses a non-reentrant model
  1752 ;;
  1753                           
  1754                           	psect	text4
  1755   001D68                     __ptext4:
  1756                           	callstack 0
  1757   001D68                     ___xxtofl:
  1758                           	callstack 25
  1759                           
  1760                           ;incstack = 0
  1761                           ;___xxtofl@sign stored from wreg
  1762   001D68  6E09               	movwf	___xxtofl@sign^0,c
  1763   001D6A  5009               	movf	___xxtofl@sign^0,w,c
  1764   001D6C  B4D8               	btfsc	status,2,c
  1765   001D6E  EFBB  F00E         	goto	u4161
  1766   001D72  EFBD  F00E         	goto	u4160
  1767   001D76                     u4161:
  1768   001D76  EFDF  F00E         	goto	l1945
  1769   001D7A                     u4160:
  1770   001D7A  BE04               	btfsc	(___xxtofl@val+3)^0,7,c
  1771   001D7C  EFC4  F00E         	goto	u4170
  1772   001D80  EFC2  F00E         	goto	u4171
  1773   001D84                     u4171:
  1774   001D84  EFDF  F00E         	goto	l1945
  1775   001D88                     u4170:
  1776   001D88  C001  F005         	movff	___xxtofl@val,??___xxtofl
  1777   001D8C  C002  F006         	movff	___xxtofl@val+1,??___xxtofl+1
  1778   001D90  C003  F007         	movff	___xxtofl@val+2,??___xxtofl+2
  1779   001D94  C004  F008         	movff	___xxtofl@val+3,??___xxtofl+3
  1780   001D98  1E05               	comf	??___xxtofl^0,f,c
  1781   001D9A  1E06               	comf	(??___xxtofl+1)^0,f,c
  1782   001D9C  1E07               	comf	(??___xxtofl+2)^0,f,c
  1783   001D9E  1E08               	comf	(??___xxtofl+3)^0,f,c
  1784   001DA0  2A05               	incf	??___xxtofl^0,f,c
  1785   001DA2  0E00               	movlw	0
  1786   001DA4  2206               	addwfc	(??___xxtofl+1)^0,f,c
  1787   001DA6  2207               	addwfc	(??___xxtofl+2)^0,f,c
  1788   001DA8  2208               	addwfc	(??___xxtofl+3)^0,f,c
  1789   001DAA  C005  F00B         	movff	??___xxtofl,___xxtofl@arg
  1790   001DAE  C006  F00C         	movff	??___xxtofl+1,___xxtofl@arg+1
  1791   001DB2  C007  F00D         	movff	??___xxtofl+2,___xxtofl@arg+2
  1792   001DB6  C008  F00E         	movff	??___xxtofl+3,___xxtofl@arg+3
  1793   001DBA  EFE7  F00E         	goto	l5076
  1794   001DBE                     l1945:
  1795   001DBE  C001  F00B         	movff	___xxtofl@val,___xxtofl@arg
  1796   001DC2  C002  F00C         	movff	___xxtofl@val+1,___xxtofl@arg+1
  1797   001DC6  C003  F00D         	movff	___xxtofl@val+2,___xxtofl@arg+2
  1798   001DCA  C004  F00E         	movff	___xxtofl@val+3,___xxtofl@arg+3
  1799   001DCE                     l5076:
  1800   001DCE  5001               	movf	___xxtofl@val^0,w,c
  1801   001DD0  1002               	iorwf	(___xxtofl@val+1)^0,w,c
  1802   001DD2  1003               	iorwf	(___xxtofl@val+2)^0,w,c
  1803   001DD4  1004               	iorwf	(___xxtofl@val+3)^0,w,c
  1804   001DD6  A4D8               	btfss	status,2,c
  1805   001DD8  EFF0  F00E         	goto	u4181
  1806   001DDC  EFF2  F00E         	goto	u4180
  1807   001DE0                     u4181:
  1808   001DE0  EFFC  F00E         	goto	l5082
  1809   001DE4                     u4180:
  1810   001DE4  0E00               	movlw	0
  1811   001DE6  6E01               	movwf	?___xxtofl^0,c
  1812   001DE8  0E00               	movlw	0
  1813   001DEA  6E02               	movwf	(?___xxtofl+1)^0,c
  1814   001DEC  0E00               	movlw	0
  1815   001DEE  6E03               	movwf	(?___xxtofl+2)^0,c
  1816   001DF0  0E00               	movlw	0
  1817   001DF2  6E04               	movwf	(?___xxtofl+3)^0,c
  1818   001DF4  EF8D  F00F         	goto	l1948
  1819   001DF8                     l5082:
  1820   001DF8  0E96               	movlw	150
  1821   001DFA  6E0A               	movwf	___xxtofl@exp^0,c
  1822   001DFC  EF06  F00F         	goto	l5086
  1823   001E00                     l5084:
  1824   001E00  2A0A               	incf	___xxtofl@exp^0,f,c
  1825   001E02  90D8               	bcf	status,0,c
  1826   001E04  320E               	rrcf	(___xxtofl@arg+3)^0,f,c
  1827   001E06  320D               	rrcf	(___xxtofl@arg+2)^0,f,c
  1828   001E08  320C               	rrcf	(___xxtofl@arg+1)^0,f,c
  1829   001E0A  320B               	rrcf	___xxtofl@arg^0,f,c
  1830   001E0C                     l5086:
  1831   001E0C  0E00               	movlw	0
  1832   001E0E  140B               	andwf	___xxtofl@arg^0,w,c
  1833   001E10  6E05               	movwf	??___xxtofl^0,c
  1834   001E12  0E00               	movlw	0
  1835   001E14  140C               	andwf	(___xxtofl@arg+1)^0,w,c
  1836   001E16  6E06               	movwf	(??___xxtofl+1)^0,c
  1837   001E18  0E00               	movlw	0
  1838   001E1A  140D               	andwf	(___xxtofl@arg+2)^0,w,c
  1839   001E1C  6E07               	movwf	(??___xxtofl+2)^0,c
  1840   001E1E  0EFE               	movlw	254
  1841   001E20  140E               	andwf	(___xxtofl@arg+3)^0,w,c
  1842   001E22  6E08               	movwf	(??___xxtofl+3)^0,c
  1843   001E24  5005               	movf	??___xxtofl^0,w,c
  1844   001E26  1006               	iorwf	(??___xxtofl+1)^0,w,c
  1845   001E28  1007               	iorwf	(??___xxtofl+2)^0,w,c
  1846   001E2A  1008               	iorwf	(??___xxtofl+3)^0,w,c
  1847   001E2C  A4D8               	btfss	status,2,c
  1848   001E2E  EF1B  F00F         	goto	u4191
  1849   001E32  EF1D  F00F         	goto	u4190
  1850   001E36                     u4191:
  1851   001E36  EF00  F00F         	goto	l5084
  1852   001E3A                     u4190:
  1853   001E3A  EF2B  F00F         	goto	l1952
  1854   001E3E                     l5088:
  1855   001E3E  2A0A               	incf	___xxtofl@exp^0,f,c
  1856   001E40  0E01               	movlw	1
  1857   001E42  260B               	addwf	___xxtofl@arg^0,f,c
  1858   001E44  0E00               	movlw	0
  1859   001E46  220C               	addwfc	(___xxtofl@arg+1)^0,f,c
  1860   001E48  220D               	addwfc	(___xxtofl@arg+2)^0,f,c
  1861   001E4A  220E               	addwfc	(___xxtofl@arg+3)^0,f,c
  1862   001E4C  90D8               	bcf	status,0,c
  1863   001E4E  320E               	rrcf	(___xxtofl@arg+3)^0,f,c
  1864   001E50  320D               	rrcf	(___xxtofl@arg+2)^0,f,c
  1865   001E52  320C               	rrcf	(___xxtofl@arg+1)^0,f,c
  1866   001E54  320B               	rrcf	___xxtofl@arg^0,f,c
  1867   001E56                     l1952:
  1868   001E56  0E00               	movlw	0
  1869   001E58  140B               	andwf	___xxtofl@arg^0,w,c
  1870   001E5A  6E05               	movwf	??___xxtofl^0,c
  1871   001E5C  0E00               	movlw	0
  1872   001E5E  140C               	andwf	(___xxtofl@arg+1)^0,w,c
  1873   001E60  6E06               	movwf	(??___xxtofl+1)^0,c
  1874   001E62  0E00               	movlw	0
  1875   001E64  140D               	andwf	(___xxtofl@arg+2)^0,w,c
  1876   001E66  6E07               	movwf	(??___xxtofl+2)^0,c
  1877   001E68  0EFF               	movlw	255
  1878   001E6A  140E               	andwf	(___xxtofl@arg+3)^0,w,c
  1879   001E6C  6E08               	movwf	(??___xxtofl+3)^0,c
  1880   001E6E  5005               	movf	??___xxtofl^0,w,c
  1881   001E70  1006               	iorwf	(??___xxtofl+1)^0,w,c
  1882   001E72  1007               	iorwf	(??___xxtofl+2)^0,w,c
  1883   001E74  1008               	iorwf	(??___xxtofl+3)^0,w,c
  1884   001E76  A4D8               	btfss	status,2,c
  1885   001E78  EF40  F00F         	goto	u4201
  1886   001E7C  EF42  F00F         	goto	u4200
  1887   001E80                     u4201:
  1888   001E80  EF1F  F00F         	goto	l5088
  1889   001E84                     u4200:
  1890   001E84  EF4A  F00F         	goto	l5096
  1891   001E88                     l5094:
  1892   001E88  060A               	decf	___xxtofl@exp^0,f,c
  1893   001E8A  90D8               	bcf	status,0,c
  1894   001E8C  360B               	rlcf	___xxtofl@arg^0,f,c
  1895   001E8E  360C               	rlcf	(___xxtofl@arg+1)^0,f,c
  1896   001E90  360D               	rlcf	(___xxtofl@arg+2)^0,f,c
  1897   001E92  360E               	rlcf	(___xxtofl@arg+3)^0,f,c
  1898   001E94                     l5096:
  1899   001E94  BE0D               	btfsc	(___xxtofl@arg+2)^0,7,c
  1900   001E96  EF4F  F00F         	goto	u4211
  1901   001E9A  EF51  F00F         	goto	u4210
  1902   001E9E                     u4211:
  1903   001E9E  EF59  F00F         	goto	l1959
  1904   001EA2                     u4210:
  1905   001EA2  0E02               	movlw	2
  1906   001EA4  600A               	cpfslt	___xxtofl@exp^0,c
  1907   001EA6  EF57  F00F         	goto	u4221
  1908   001EAA  EF59  F00F         	goto	u4220
  1909   001EAE                     u4221:
  1910   001EAE  EF44  F00F         	goto	l5094
  1911   001EB2                     u4220:
  1912   001EB2                     l1959:
  1913   001EB2  B00A               	btfsc	___xxtofl@exp^0,0,c
  1914   001EB4  EF5E  F00F         	goto	u4231
  1915   001EB8  EF60  F00F         	goto	u4230
  1916   001EBC                     u4231:
  1917   001EBC  EF61  F00F         	goto	l5102
  1918   001EC0                     u4230:
  1919   001EC0  9E0D               	bcf	(___xxtofl@arg+2)^0,7,c
  1920   001EC2                     l5102:
  1921   001EC2  90D8               	bcf	status,0,c
  1922   001EC4  320A               	rrcf	___xxtofl@exp^0,f,c
  1923   001EC6  C00A  F005         	movff	___xxtofl@exp,??___xxtofl
  1924   001ECA  6A06               	clrf	(??___xxtofl+1)^0,c
  1925   001ECC  6A07               	clrf	(??___xxtofl+2)^0,c
  1926   001ECE  6A08               	clrf	(??___xxtofl+3)^0,c
  1927   001ED0  C005  F008         	movff	??___xxtofl,??___xxtofl+3
  1928   001ED4  6A07               	clrf	(??___xxtofl+2)^0,c
  1929   001ED6  6A06               	clrf	(??___xxtofl+1)^0,c
  1930   001ED8  6A05               	clrf	??___xxtofl^0,c
  1931   001EDA  5005               	movf	??___xxtofl^0,w,c
  1932   001EDC  120B               	iorwf	___xxtofl@arg^0,f,c
  1933   001EDE  5006               	movf	(??___xxtofl+1)^0,w,c
  1934   001EE0  120C               	iorwf	(___xxtofl@arg+1)^0,f,c
  1935   001EE2  5007               	movf	(??___xxtofl+2)^0,w,c
  1936   001EE4  120D               	iorwf	(___xxtofl@arg+2)^0,f,c
  1937   001EE6  5008               	movf	(??___xxtofl+3)^0,w,c
  1938   001EE8  120E               	iorwf	(___xxtofl@arg+3)^0,f,c
  1939   001EEA  5009               	movf	___xxtofl@sign^0,w,c
  1940   001EEC  B4D8               	btfsc	status,2,c
  1941   001EEE  EF7B  F00F         	goto	u4241
  1942   001EF2  EF7D  F00F         	goto	u4240
  1943   001EF6                     u4241:
  1944   001EF6  EF85  F00F         	goto	l5112
  1945   001EFA                     u4240:
  1946   001EFA  BE04               	btfsc	(___xxtofl@val+3)^0,7,c
  1947   001EFC  EF84  F00F         	goto	u4250
  1948   001F00  EF82  F00F         	goto	u4251
  1949   001F04                     u4251:
  1950   001F04  EF85  F00F         	goto	l5112
  1951   001F08                     u4250:
  1952   001F08  8E0E               	bsf	(___xxtofl@arg+3)^0,7,c
  1953   001F0A                     l5112:
  1954   001F0A  C00B  F001         	movff	___xxtofl@arg,?___xxtofl
  1955   001F0E  C00C  F002         	movff	___xxtofl@arg+1,?___xxtofl+1
  1956   001F12  C00D  F003         	movff	___xxtofl@arg+2,?___xxtofl+2
  1957   001F16  C00E  F004         	movff	___xxtofl@arg+3,?___xxtofl+3
  1958   001F1A                     l1948:
  1959   001F1A  0012               	return		;funcret
  1960   001F1C                     __end_of___xxtofl:
  1961                           	callstack 0
  1962                           
  1963 ;; *************** function ___fltol *****************
  1964 ;; Defined at:
  1965 ;;		line 43 in file "D:\CodingPrograms\xc8\pic\sources\c99\common\fltol.c"
  1966 ;; Parameters:    Size  Location     Type
  1967 ;;  f1              4    0[COMRAM] unsigned char 
  1968 ;; Auto vars:     Size  Location     Type
  1969 ;;  exp1            1    9[COMRAM] unsigned char 
  1970 ;;  sign1           1    8[COMRAM] unsigned char 
  1971 ;; Return value:  Size  Location     Type
  1972 ;;                  4    0[COMRAM] long 
  1973 ;; Registers used:
  1974 ;;		wreg, status,2, status,0
  1975 ;; Tracked objects:
  1976 ;;		On entry : 0/0
  1977 ;;		On exit  : 0/0
  1978 ;;		Unchanged: 0/0
  1979 ;; Data sizes:     COMRAM   BANK0   BANK1   BANK2   BANK3   BANK4   BANK5   BANK6   BANK7   BANK8   BANK9  BANK10  BANK1
      +1  BANK12  BANK13  BANK14  BANK15
  1980 ;;      Params:         4       0       0       0       0       0       0       0       0       0       0       0       
      +0       0       0       0       0
  1981 ;;      Locals:         2       0       0       0       0       0       0       0       0       0       0       0       
      +0       0       0       0       0
  1982 ;;      Temps:          4       0       0       0       0       0       0       0       0       0       0       0       
      +0       0       0       0       0
  1983 ;;      Totals:        10       0       0       0       0       0       0       0       0       0       0       0       
      +0       0       0       0       0
  1984 ;;Total ram usage:       10 bytes
  1985 ;; Hardware stack levels used: 1
  1986 ;; Hardware stack levels required when called: 2
  1987 ;; This function calls:
  1988 ;;		Nothing
  1989 ;; This function is called by:
  1990 ;;		_Uart_Baud_Rate_Calculation
  1991 ;;		_CCP_Init
  1992 ;;		_CCP_PWM_Set_Duty
  1993 ;; This function uses a non-reentrant model
  1994 ;;
  1995                           
  1996                           	psect	text5
  1997   002164                     __ptext5:
  1998                           	callstack 0
  1999   002164                     ___fltol:
  2000                           	callstack 25
  2001   002164  3403               	rlcf	(___fltol@f1+2)^0,w,c
  2002   002166  3404               	rlcf	(___fltol@f1+3)^0,w,c
  2003   002168  6E0A               	movwf	___fltol@exp1^0,c
  2004   00216A  500A               	movf	___fltol@exp1^0,w,c
  2005   00216C  A4D8               	btfss	status,2,c
  2006   00216E  EFBB  F010         	goto	u4091
  2007   002172  EFBD  F010         	goto	u4090
  2008   002176                     u4091:
  2009   002176  EFC7  F010         	goto	l5032
  2010   00217A                     u4090:
  2011   00217A                     l5028:
  2012   00217A  0E00               	movlw	0
  2013   00217C  6E01               	movwf	?___fltol^0,c
  2014   00217E  0E00               	movlw	0
  2015   002180  6E02               	movwf	(?___fltol+1)^0,c
  2016   002182  0E00               	movlw	0
  2017   002184  6E03               	movwf	(?___fltol+2)^0,c
  2018   002186  0E00               	movlw	0
  2019   002188  6E04               	movwf	(?___fltol+3)^0,c
  2020   00218A  EF34  F011         	goto	l1587
  2021   00218E                     l5032:
  2022   00218E  C001  F005         	movff	___fltol@f1,??___fltol
  2023   002192  C002  F006         	movff	___fltol@f1+1,??___fltol+1
  2024   002196  C003  F007         	movff	___fltol@f1+2,??___fltol+2
  2025   00219A  C004  F008         	movff	___fltol@f1+3,??___fltol+3
  2026   00219E  0E20               	movlw	32
  2027   0021A0  EFD7  F010         	goto	u4100
  2028   0021A4                     u4105:
  2029   0021A4  90D8               	bcf	status,0,c
  2030   0021A6  3208               	rrcf	(??___fltol+3)^0,f,c
  2031   0021A8  3207               	rrcf	(??___fltol+2)^0,f,c
  2032   0021AA  3206               	rrcf	(??___fltol+1)^0,f,c
  2033   0021AC  3205               	rrcf	??___fltol^0,f,c
  2034   0021AE                     u4100:
  2035   0021AE  2EE8               	decfsz	wreg,f,c
  2036   0021B0  EFD2  F010         	goto	u4105
  2037   0021B4  5005               	movf	??___fltol^0,w,c
  2038   0021B6  6E09               	movwf	___fltol@sign1^0,c
  2039   0021B8  8E03               	bsf	(___fltol@f1+2)^0,7,c
  2040   0021BA  0EFF               	movlw	255
  2041   0021BC  1601               	andwf	___fltol@f1^0,f,c
  2042   0021BE  0EFF               	movlw	255
  2043   0021C0  1602               	andwf	(___fltol@f1+1)^0,f,c
  2044   0021C2  0EFF               	movlw	255
  2045   0021C4  1603               	andwf	(___fltol@f1+2)^0,f,c
  2046   0021C6  0E00               	movlw	0
  2047   0021C8  1604               	andwf	(___fltol@f1+3)^0,f,c
  2048   0021CA  0E96               	movlw	150
  2049   0021CC  5E0A               	subwf	___fltol@exp1^0,f,c
  2050   0021CE  BE0A               	btfsc	___fltol@exp1^0,7,c
  2051   0021D0  EFEE  F010         	goto	u4110
  2052   0021D4  EFEC  F010         	goto	u4111
  2053   0021D8                     u4111:
  2054   0021D8  EF04  F011         	goto	l5052
  2055   0021DC                     u4110:
  2056   0021DC  500A               	movf	___fltol@exp1^0,w,c
  2057   0021DE  0A80               	xorlw	128
  2058   0021E0  0F97               	addlw	151
  2059   0021E2  B0D8               	btfsc	status,0,c
  2060   0021E4  EFF6  F010         	goto	u4121
  2061   0021E8  EFF8  F010         	goto	u4120
  2062   0021EC                     u4121:
  2063   0021EC  EFFA  F010         	goto	l5048
  2064   0021F0                     u4120:
  2065   0021F0  EFBD  F010         	goto	l5028
  2066   0021F4                     l5048:
  2067   0021F4  90D8               	bcf	status,0,c
  2068   0021F6  3204               	rrcf	(___fltol@f1+3)^0,f,c
  2069   0021F8  3203               	rrcf	(___fltol@f1+2)^0,f,c
  2070   0021FA  3202               	rrcf	(___fltol@f1+1)^0,f,c
  2071   0021FC  3201               	rrcf	___fltol@f1^0,f,c
  2072   0021FE  3E0A               	incfsz	___fltol@exp1^0,f,c
  2073   002200  EFFA  F010         	goto	l5048
  2074   002204  EF1C  F011         	goto	l5062
  2075   002208                     l5052:
  2076   002208  0E1F               	movlw	31
  2077   00220A  640A               	cpfsgt	___fltol@exp1^0,c
  2078   00220C  EF0A  F011         	goto	u4131
  2079   002210  EF0C  F011         	goto	u4130
  2080   002214                     u4131:
  2081   002214  EF14  F011         	goto	l5060
  2082   002218                     u4130:
  2083   002218  EFBD  F010         	goto	l5028
  2084   00221C                     l5058:
  2085   00221C  90D8               	bcf	status,0,c
  2086   00221E  3601               	rlcf	___fltol@f1^0,f,c
  2087   002220  3602               	rlcf	(___fltol@f1+1)^0,f,c
  2088   002222  3603               	rlcf	(___fltol@f1+2)^0,f,c
  2089   002224  3604               	rlcf	(___fltol@f1+3)^0,f,c
  2090   002226  060A               	decf	___fltol@exp1^0,f,c
  2091   002228                     l5060:
  2092   002228  500A               	movf	___fltol@exp1^0,w,c
  2093   00222A  A4D8               	btfss	status,2,c
  2094   00222C  EF1A  F011         	goto	u4141
  2095   002230  EF1C  F011         	goto	u4140
  2096   002234                     u4141:
  2097   002234  EF0E  F011         	goto	l5058
  2098   002238                     u4140:
  2099   002238                     l5062:
  2100   002238  5009               	movf	___fltol@sign1^0,w,c
  2101   00223A  B4D8               	btfsc	status,2,c
  2102   00223C  EF22  F011         	goto	u4151
  2103   002240  EF24  F011         	goto	u4150
  2104   002244                     u4151:
  2105   002244  EF2C  F011         	goto	l5066
  2106   002248                     u4150:
  2107   002248  1E04               	comf	(___fltol@f1+3)^0,f,c
  2108   00224A  1E03               	comf	(___fltol@f1+2)^0,f,c
  2109   00224C  1E02               	comf	(___fltol@f1+1)^0,f,c
  2110   00224E  6C01               	negf	___fltol@f1^0,c
  2111   002250  0E00               	movlw	0
  2112   002252  2202               	addwfc	(___fltol@f1+1)^0,f,c
  2113   002254  2203               	addwfc	(___fltol@f1+2)^0,f,c
  2114   002256  2204               	addwfc	(___fltol@f1+3)^0,f,c
  2115   002258                     l5066:
  2116   002258  C001  F001         	movff	___fltol@f1,?___fltol
  2117   00225C  C002  F002         	movff	___fltol@f1+1,?___fltol+1
  2118   002260  C003  F003         	movff	___fltol@f1+2,?___fltol+2
  2119   002264  C004  F004         	movff	___fltol@f1+3,?___fltol+3
  2120   002268                     l1587:
  2121   002268  0012               	return		;funcret
  2122   00226A                     __end_of___fltol:
  2123                           	callstack 0
  2124                           
  2125 ;; *************** function ___fldiv *****************
  2126 ;; Defined at:
  2127 ;;		line 11 in file "D:\CodingPrograms\xc8\pic\sources\c99\common\sprcdiv.c"
  2128 ;; Parameters:    Size  Location     Type
  2129 ;;  b               4   14[COMRAM] long 
  2130 ;;  a               4   18[COMRAM] long 
  2131 ;; Auto vars:     Size  Location     Type
  2132 ;;  grs             4   33[COMRAM] unsigned long 
  2133 ;;  rem             4   26[COMRAM] unsigned long 
  2134 ;;  new_exp         2   31[COMRAM] short 
  2135 ;;  aexp            1   38[COMRAM] unsigned char 
  2136 ;;  bexp            1   37[COMRAM] unsigned char 
  2137 ;;  sign            1   30[COMRAM] unsigned char 
  2138 ;; Return value:  Size  Location     Type
  2139 ;;                  4   14[COMRAM] unsigned char 
  2140 ;; Registers used:
  2141 ;;		wreg, status,2, status,0
  2142 ;; Tracked objects:
  2143 ;;		On entry : 0/0
  2144 ;;		On exit  : 0/0
  2145 ;;		Unchanged: 0/0
  2146 ;; Data sizes:     COMRAM   BANK0   BANK1   BANK2   BANK3   BANK4   BANK5   BANK6   BANK7   BANK8   BANK9  BANK10  BANK1
      +1  BANK12  BANK13  BANK14  BANK15
  2147 ;;      Params:         8       0       0       0       0       0       0       0       0       0       0       0       
      +0       0       0       0       0
  2148 ;;      Locals:        13       0       0       0       0       0       0       0       0       0       0       0       
      +0       0       0       0       0
  2149 ;;      Temps:          4       0       0       0       0       0       0       0       0       0       0       0       
      +0       0       0       0       0
  2150 ;;      Totals:        25       0       0       0       0       0       0       0       0       0       0       0       
      +0       0       0       0       0
  2151 ;;Total ram usage:       25 bytes
  2152 ;; Hardware stack levels used: 1
  2153 ;; Hardware stack levels required when called: 2
  2154 ;; This function calls:
  2155 ;;		Nothing
  2156 ;; This function is called by:
  2157 ;;		_Uart_Baud_Rate_Calculation
  2158 ;;		_CCP_Init
  2159 ;;		_CCP_PWM_Set_Duty
  2160 ;; This function uses a non-reentrant model
  2161 ;;
  2162                           
  2163                           	psect	text6
  2164   0019CE                     __ptext6:
  2165                           	callstack 0
  2166   0019CE                     ___fldiv:
  2167                           	callstack 25
  2168   0019CE  5012               	movf	(___fldiv@b+3)^0,w,c
  2169   0019D0  0B80               	andlw	128
  2170   0019D2  6E1F               	movwf	___fldiv@sign^0,c
  2171   0019D4  5012               	movf	(___fldiv@b+3)^0,w,c
  2172   0019D6  2412               	addwf	(___fldiv@b+3)^0,w,c
  2173   0019D8  6E26               	movwf	___fldiv@bexp^0,c
  2174   0019DA  AE11               	btfss	(___fldiv@b+2)^0,7,c
  2175   0019DC  EFF2  F00C         	goto	u3861
  2176   0019E0  EFF4  F00C         	goto	u3860
  2177   0019E4                     u3861:
  2178   0019E4  EFF5  F00C         	goto	l4894
  2179   0019E8                     u3860:
  2180   0019E8  8026               	bsf	___fldiv@bexp^0,0,c
  2181   0019EA                     l4894:
  2182   0019EA  5026               	movf	___fldiv@bexp^0,w,c
  2183   0019EC  B4D8               	btfsc	status,2,c
  2184   0019EE  EFFB  F00C         	goto	u3871
  2185   0019F2  EFFD  F00C         	goto	u3870
  2186   0019F6                     u3871:
  2187   0019F6  EF12  F00D         	goto	l4904
  2188   0019FA                     u3870:
  2189   0019FA  2826               	incf	___fldiv@bexp^0,w,c
  2190   0019FC  A4D8               	btfss	status,2,c
  2191   0019FE  EF03  F00D         	goto	u3881
  2192   001A02  EF05  F00D         	goto	u3880
  2193   001A06                     u3881:
  2194   001A06  EF0D  F00D         	goto	l4900
  2195   001A0A                     u3880:
  2196   001A0A  0E00               	movlw	0
  2197   001A0C  6E0F               	movwf	___fldiv@b^0,c
  2198   001A0E  0E00               	movlw	0
  2199   001A10  6E10               	movwf	(___fldiv@b+1)^0,c
  2200   001A12  0E00               	movlw	0
  2201   001A14  6E11               	movwf	(___fldiv@b+2)^0,c
  2202   001A16  0E00               	movlw	0
  2203   001A18  6E12               	movwf	(___fldiv@b+3)^0,c
  2204   001A1A                     l4900:
  2205   001A1A  8E11               	bsf	(___fldiv@b+2)^0,7,c
  2206   001A1C  0E00               	movlw	0
  2207   001A1E  6E12               	movwf	(___fldiv@b+3)^0,c
  2208   001A20  EF1A  F00D         	goto	l4906
  2209   001A24                     l4904:
  2210   001A24  0E00               	movlw	0
  2211   001A26  6E0F               	movwf	___fldiv@b^0,c
  2212   001A28  0E00               	movlw	0
  2213   001A2A  6E10               	movwf	(___fldiv@b+1)^0,c
  2214   001A2C  0E00               	movlw	0
  2215   001A2E  6E11               	movwf	(___fldiv@b+2)^0,c
  2216   001A30  0E00               	movlw	0
  2217   001A32  6E12               	movwf	(___fldiv@b+3)^0,c
  2218   001A34                     l4906:
  2219   001A34  5016               	movf	(___fldiv@a+3)^0,w,c
  2220   001A36  0B80               	andlw	128
  2221   001A38  1A1F               	xorwf	___fldiv@sign^0,f,c
  2222   001A3A  5016               	movf	(___fldiv@a+3)^0,w,c
  2223   001A3C  2416               	addwf	(___fldiv@a+3)^0,w,c
  2224   001A3E  6E27               	movwf	___fldiv@aexp^0,c
  2225   001A40  AE15               	btfss	(___fldiv@a+2)^0,7,c
  2226   001A42  EF25  F00D         	goto	u3891
  2227   001A46  EF27  F00D         	goto	u3890
  2228   001A4A                     u3891:
  2229   001A4A  EF28  F00D         	goto	l4914
  2230   001A4E                     u3890:
  2231   001A4E  8027               	bsf	___fldiv@aexp^0,0,c
  2232   001A50                     l4914:
  2233   001A50  5027               	movf	___fldiv@aexp^0,w,c
  2234   001A52  B4D8               	btfsc	status,2,c
  2235   001A54  EF2E  F00D         	goto	u3901
  2236   001A58  EF30  F00D         	goto	u3900
  2237   001A5C                     u3901:
  2238   001A5C  EF45  F00D         	goto	l4924
  2239   001A60                     u3900:
  2240   001A60  2827               	incf	___fldiv@aexp^0,w,c
  2241   001A62  A4D8               	btfss	status,2,c
  2242   001A64  EF36  F00D         	goto	u3911
  2243   001A68  EF38  F00D         	goto	u3910
  2244   001A6C                     u3911:
  2245   001A6C  EF40  F00D         	goto	l4920
  2246   001A70                     u3910:
  2247   001A70  0E00               	movlw	0
  2248   001A72  6E13               	movwf	___fldiv@a^0,c
  2249   001A74  0E00               	movlw	0
  2250   001A76  6E14               	movwf	(___fldiv@a+1)^0,c
  2251   001A78  0E00               	movlw	0
  2252   001A7A  6E15               	movwf	(___fldiv@a+2)^0,c
  2253   001A7C  0E00               	movlw	0
  2254   001A7E  6E16               	movwf	(___fldiv@a+3)^0,c
  2255   001A80                     l4920:
  2256   001A80  8E15               	bsf	(___fldiv@a+2)^0,7,c
  2257   001A82  0E00               	movlw	0
  2258   001A84  6E16               	movwf	(___fldiv@a+3)^0,c
  2259   001A86  EF4D  F00D         	goto	l4926
  2260   001A8A                     l4924:
  2261   001A8A  0E00               	movlw	0
  2262   001A8C  6E13               	movwf	___fldiv@a^0,c
  2263   001A8E  0E00               	movlw	0
  2264   001A90  6E14               	movwf	(___fldiv@a+1)^0,c
  2265   001A92  0E00               	movlw	0
  2266   001A94  6E15               	movwf	(___fldiv@a+2)^0,c
  2267   001A96  0E00               	movlw	0
  2268   001A98  6E16               	movwf	(___fldiv@a+3)^0,c
  2269   001A9A                     l4926:
  2270   001A9A  5013               	movf	___fldiv@a^0,w,c
  2271   001A9C  1014               	iorwf	(___fldiv@a+1)^0,w,c
  2272   001A9E  1015               	iorwf	(___fldiv@a+2)^0,w,c
  2273   001AA0  1016               	iorwf	(___fldiv@a+3)^0,w,c
  2274   001AA2  A4D8               	btfss	status,2,c
  2275   001AA4  EF56  F00D         	goto	u3921
  2276   001AA8  EF58  F00D         	goto	u3920
  2277   001AAC                     u3921:
  2278   001AAC  EF70  F00D         	goto	l4938
  2279   001AB0                     u3920:
  2280   001AB0  0E00               	movlw	0
  2281   001AB2  6E0F               	movwf	___fldiv@b^0,c
  2282   001AB4  0E00               	movlw	0
  2283   001AB6  6E10               	movwf	(___fldiv@b+1)^0,c
  2284   001AB8  0E00               	movlw	0
  2285   001ABA  6E11               	movwf	(___fldiv@b+2)^0,c
  2286   001ABC  0E00               	movlw	0
  2287   001ABE  6E12               	movwf	(___fldiv@b+3)^0,c
  2288   001AC0  0E80               	movlw	128
  2289   001AC2  1211               	iorwf	(___fldiv@b+2)^0,f,c
  2290   001AC4  0E7F               	movlw	127
  2291   001AC6  1212               	iorwf	(___fldiv@b+3)^0,f,c
  2292   001AC8                     l4932:
  2293   001AC8  501F               	movf	___fldiv@sign^0,w,c
  2294   001ACA  1212               	iorwf	(___fldiv@b+3)^0,f,c
  2295   001ACC  C00F  F00F         	movff	___fldiv@b,?___fldiv
  2296   001AD0  C010  F010         	movff	___fldiv@b+1,?___fldiv+1
  2297   001AD4  C011  F011         	movff	___fldiv@b+2,?___fldiv+2
  2298   001AD8  C012  F012         	movff	___fldiv@b+3,?___fldiv+3
  2299   001ADC  EFB3  F00E         	goto	l1872
  2300   001AE0                     l4938:
  2301   001AE0  5026               	movf	___fldiv@bexp^0,w,c
  2302   001AE2  A4D8               	btfss	status,2,c
  2303   001AE4  EF76  F00D         	goto	u3931
  2304   001AE8  EF78  F00D         	goto	u3930
  2305   001AEC                     u3931:
  2306   001AEC  EF82  F00D         	goto	l4946
  2307   001AF0                     u3930:
  2308   001AF0  0E00               	movlw	0
  2309   001AF2  6E0F               	movwf	?___fldiv^0,c
  2310   001AF4  0E00               	movlw	0
  2311   001AF6  6E10               	movwf	(?___fldiv+1)^0,c
  2312   001AF8  0E00               	movlw	0
  2313   001AFA  6E11               	movwf	(?___fldiv+2)^0,c
  2314   001AFC  0E00               	movlw	0
  2315   001AFE  6E12               	movwf	(?___fldiv+3)^0,c
  2316   001B00  EFB3  F00E         	goto	l1872
  2317   001B04                     l4946:
  2318   001B04  5027               	movf	___fldiv@aexp^0,w,c
  2319   001B06  C026  F017         	movff	___fldiv@bexp,??___fldiv
  2320   001B0A  6A18               	clrf	(??___fldiv+1)^0,c
  2321   001B0C  5E17               	subwf	??___fldiv^0,f,c
  2322   001B0E  0E00               	movlw	0
  2323   001B10  5A18               	subwfb	(??___fldiv+1)^0,f,c
  2324   001B12  0E7F               	movlw	127
  2325   001B14  2417               	addwf	??___fldiv^0,w,c
  2326   001B16  6E20               	movwf	___fldiv@new_exp^0,c
  2327   001B18  0E00               	movlw	0
  2328   001B1A  2018               	addwfc	(??___fldiv+1)^0,w,c
  2329   001B1C  6E21               	movwf	(___fldiv@new_exp+1)^0,c
  2330   001B1E  C00F  F01B         	movff	___fldiv@b,___fldiv@rem
  2331   001B22  C010  F01C         	movff	___fldiv@b+1,___fldiv@rem+1
  2332   001B26  C011  F01D         	movff	___fldiv@b+2,___fldiv@rem+2
  2333   001B2A  C012  F01E         	movff	___fldiv@b+3,___fldiv@rem+3
  2334   001B2E  0E00               	movlw	0
  2335   001B30  6E0F               	movwf	___fldiv@b^0,c
  2336   001B32  0E00               	movlw	0
  2337   001B34  6E10               	movwf	(___fldiv@b+1)^0,c
  2338   001B36  0E00               	movlw	0
  2339   001B38  6E11               	movwf	(___fldiv@b+2)^0,c
  2340   001B3A  0E00               	movlw	0
  2341   001B3C  6E12               	movwf	(___fldiv@b+3)^0,c
  2342   001B3E  0E00               	movlw	0
  2343   001B40  6E22               	movwf	___fldiv@grs^0,c
  2344   001B42  0E00               	movlw	0
  2345   001B44  6E23               	movwf	(___fldiv@grs+1)^0,c
  2346   001B46  0E00               	movlw	0
  2347   001B48  6E24               	movwf	(___fldiv@grs+2)^0,c
  2348   001B4A  0E00               	movlw	0
  2349   001B4C  6E25               	movwf	(___fldiv@grs+3)^0,c
  2350   001B4E  0E00               	movlw	0
  2351   001B50  6E27               	movwf	___fldiv@aexp^0,c
  2352   001B52  EFE3  F00D         	goto	l1874
  2353   001B56                     l4956:
  2354   001B56  5027               	movf	___fldiv@aexp^0,w,c
  2355   001B58  B4D8               	btfsc	status,2,c
  2356   001B5A  EFB1  F00D         	goto	u3941
  2357   001B5E  EFB3  F00D         	goto	u3940
  2358   001B62                     u3941:
  2359   001B62  EFCA  F00D         	goto	l4964
  2360   001B66                     u3940:
  2361   001B66  90D8               	bcf	status,0,c
  2362   001B68  361B               	rlcf	___fldiv@rem^0,f,c
  2363   001B6A  361C               	rlcf	(___fldiv@rem+1)^0,f,c
  2364   001B6C  361D               	rlcf	(___fldiv@rem+2)^0,f,c
  2365   001B6E  361E               	rlcf	(___fldiv@rem+3)^0,f,c
  2366   001B70  90D8               	bcf	status,0,c
  2367   001B72  360F               	rlcf	___fldiv@b^0,f,c
  2368   001B74  3610               	rlcf	(___fldiv@b+1)^0,f,c
  2369   001B76  3611               	rlcf	(___fldiv@b+2)^0,f,c
  2370   001B78  3612               	rlcf	(___fldiv@b+3)^0,f,c
  2371   001B7A  AE25               	btfss	(___fldiv@grs+3)^0,7,c
  2372   001B7C  EFC2  F00D         	goto	u3951
  2373   001B80  EFC4  F00D         	goto	u3950
  2374   001B84                     u3951:
  2375   001B84  EFC5  F00D         	goto	l1877
  2376   001B88                     u3950:
  2377   001B88  800F               	bsf	___fldiv@b^0,0,c
  2378   001B8A                     l1877:
  2379   001B8A  90D8               	bcf	status,0,c
  2380   001B8C  3622               	rlcf	___fldiv@grs^0,f,c
  2381   001B8E  3623               	rlcf	(___fldiv@grs+1)^0,f,c
  2382   001B90  3624               	rlcf	(___fldiv@grs+2)^0,f,c
  2383   001B92  3625               	rlcf	(___fldiv@grs+3)^0,f,c
  2384   001B94                     l4964:
  2385   001B94  5013               	movf	___fldiv@a^0,w,c
  2386   001B96  5C1B               	subwf	___fldiv@rem^0,w,c
  2387   001B98  5014               	movf	(___fldiv@a+1)^0,w,c
  2388   001B9A  581C               	subwfb	(___fldiv@rem+1)^0,w,c
  2389   001B9C  5015               	movf	(___fldiv@a+2)^0,w,c
  2390   001B9E  581D               	subwfb	(___fldiv@rem+2)^0,w,c
  2391   001BA0  5016               	movf	(___fldiv@a+3)^0,w,c
  2392   001BA2  581E               	subwfb	(___fldiv@rem+3)^0,w,c
  2393   001BA4  A0D8               	btfss	status,0,c
  2394   001BA6  EFD7  F00D         	goto	u3961
  2395   001BAA  EFD9  F00D         	goto	u3960
  2396   001BAE                     u3961:
  2397   001BAE  EFE2  F00D         	goto	l4970
  2398   001BB2                     u3960:
  2399   001BB2  8C25               	bsf	(___fldiv@grs+3)^0,6,c
  2400   001BB4  5013               	movf	___fldiv@a^0,w,c
  2401   001BB6  5E1B               	subwf	___fldiv@rem^0,f,c
  2402   001BB8  5014               	movf	(___fldiv@a+1)^0,w,c
  2403   001BBA  5A1C               	subwfb	(___fldiv@rem+1)^0,f,c
  2404   001BBC  5015               	movf	(___fldiv@a+2)^0,w,c
  2405   001BBE  5A1D               	subwfb	(___fldiv@rem+2)^0,f,c
  2406   001BC0  5016               	movf	(___fldiv@a+3)^0,w,c
  2407   001BC2  5A1E               	subwfb	(___fldiv@rem+3)^0,f,c
  2408   001BC4                     l4970:
  2409   001BC4  2A27               	incf	___fldiv@aexp^0,f,c
  2410   001BC6                     l1874:
  2411   001BC6  0E19               	movlw	25
  2412   001BC8  6427               	cpfsgt	___fldiv@aexp^0,c
  2413   001BCA  EFE9  F00D         	goto	u3971
  2414   001BCE  EFEB  F00D         	goto	u3970
  2415   001BD2                     u3971:
  2416   001BD2  EFAB  F00D         	goto	l4956
  2417   001BD6                     u3970:
  2418   001BD6  501B               	movf	___fldiv@rem^0,w,c
  2419   001BD8  101C               	iorwf	(___fldiv@rem+1)^0,w,c
  2420   001BDA  101D               	iorwf	(___fldiv@rem+2)^0,w,c
  2421   001BDC  101E               	iorwf	(___fldiv@rem+3)^0,w,c
  2422   001BDE  B4D8               	btfsc	status,2,c
  2423   001BE0  EFF4  F00D         	goto	u3981
  2424   001BE4  EFF6  F00D         	goto	u3980
  2425   001BE8                     u3981:
  2426   001BE8  EF0E  F00E         	goto	l4982
  2427   001BEC                     u3980:
  2428   001BEC  8022               	bsf	___fldiv@grs^0,0,c
  2429   001BEE  EF0E  F00E         	goto	l4982
  2430   001BF2                     l4976:
  2431   001BF2  90D8               	bcf	status,0,c
  2432   001BF4  360F               	rlcf	___fldiv@b^0,f,c
  2433   001BF6  3610               	rlcf	(___fldiv@b+1)^0,f,c
  2434   001BF8  3611               	rlcf	(___fldiv@b+2)^0,f,c
  2435   001BFA  3612               	rlcf	(___fldiv@b+3)^0,f,c
  2436   001BFC  AE25               	btfss	(___fldiv@grs+3)^0,7,c
  2437   001BFE  EF03  F00E         	goto	u3991
  2438   001C02  EF05  F00E         	goto	u3990
  2439   001C06                     u3991:
  2440   001C06  EF06  F00E         	goto	l1883
  2441   001C0A                     u3990:
  2442   001C0A  800F               	bsf	___fldiv@b^0,0,c
  2443   001C0C                     l1883:
  2444   001C0C  90D8               	bcf	status,0,c
  2445   001C0E  3622               	rlcf	___fldiv@grs^0,f,c
  2446   001C10  3623               	rlcf	(___fldiv@grs+1)^0,f,c
  2447   001C12  3624               	rlcf	(___fldiv@grs+2)^0,f,c
  2448   001C14  3625               	rlcf	(___fldiv@grs+3)^0,f,c
  2449   001C16  0620               	decf	___fldiv@new_exp^0,f,c
  2450   001C18  A0D8               	btfss	status,0,c
  2451   001C1A  0621               	decf	(___fldiv@new_exp+1)^0,f,c
  2452   001C1C                     l4982:
  2453   001C1C  AE11               	btfss	(___fldiv@b+2)^0,7,c
  2454   001C1E  EF13  F00E         	goto	u4001
  2455   001C22  EF15  F00E         	goto	u4000
  2456   001C26                     u4001:
  2457   001C26  EFF9  F00D         	goto	l4976
  2458   001C2A                     u4000:
  2459   001C2A  0E00               	movlw	0
  2460   001C2C  6E27               	movwf	___fldiv@aexp^0,c
  2461   001C2E  AE25               	btfss	(___fldiv@grs+3)^0,7,c
  2462   001C30  EF1C  F00E         	goto	u4011
  2463   001C34  EF1E  F00E         	goto	u4010
  2464   001C38                     u4011:
  2465   001C38  EF42  F00E         	goto	l1885
  2466   001C3C                     u4010:
  2467   001C3C  0EFF               	movlw	255
  2468   001C3E  1422               	andwf	___fldiv@grs^0,w,c
  2469   001C40  6E17               	movwf	??___fldiv^0,c
  2470   001C42  0EFF               	movlw	255
  2471   001C44  1423               	andwf	(___fldiv@grs+1)^0,w,c
  2472   001C46  6E18               	movwf	(??___fldiv+1)^0,c
  2473   001C48  0EFF               	movlw	255
  2474   001C4A  1424               	andwf	(___fldiv@grs+2)^0,w,c
  2475   001C4C  6E19               	movwf	(??___fldiv+2)^0,c
  2476   001C4E  0E7F               	movlw	127
  2477   001C50  1425               	andwf	(___fldiv@grs+3)^0,w,c
  2478   001C52  6E1A               	movwf	(??___fldiv+3)^0,c
  2479   001C54  5017               	movf	??___fldiv^0,w,c
  2480   001C56  1018               	iorwf	(??___fldiv+1)^0,w,c
  2481   001C58  1019               	iorwf	(??___fldiv+2)^0,w,c
  2482   001C5A  101A               	iorwf	(??___fldiv+3)^0,w,c
  2483   001C5C  B4D8               	btfsc	status,2,c
  2484   001C5E  EF33  F00E         	goto	u4021
  2485   001C62  EF35  F00E         	goto	u4020
  2486   001C66                     u4021:
  2487   001C66  EF39  F00E         	goto	l1886
  2488   001C6A                     u4020:
  2489   001C6A                     l4990:
  2490   001C6A  0E01               	movlw	1
  2491   001C6C  6E27               	movwf	___fldiv@aexp^0,c
  2492   001C6E  EF42  F00E         	goto	l1885
  2493   001C72                     l1886:
  2494   001C72  A00F               	btfss	___fldiv@b^0,0,c
  2495   001C74  EF3E  F00E         	goto	u4031
  2496   001C78  EF40  F00E         	goto	u4030
  2497   001C7C                     u4031:
  2498   001C7C  EF42  F00E         	goto	l1885
  2499   001C80                     u4030:
  2500   001C80  EF35  F00E         	goto	l4990
  2501   001C84                     l1885:
  2502   001C84  5027               	movf	___fldiv@aexp^0,w,c
  2503   001C86  B4D8               	btfsc	status,2,c
  2504   001C88  EF48  F00E         	goto	u4041
  2505   001C8C  EF4A  F00E         	goto	u4040
  2506   001C90                     u4041:
  2507   001C90  EF6E  F00E         	goto	l5002
  2508   001C94                     u4040:
  2509   001C94  0E01               	movlw	1
  2510   001C96  260F               	addwf	___fldiv@b^0,f,c
  2511   001C98  0E00               	movlw	0
  2512   001C9A  2210               	addwfc	(___fldiv@b+1)^0,f,c
  2513   001C9C  2211               	addwfc	(___fldiv@b+2)^0,f,c
  2514   001C9E  2212               	addwfc	(___fldiv@b+3)^0,f,c
  2515   001CA0  A012               	btfss	(___fldiv@b+3)^0,0,c
  2516   001CA2  EF55  F00E         	goto	u4051
  2517   001CA6  EF57  F00E         	goto	u4050
  2518   001CAA                     u4051:
  2519   001CAA  EF6E  F00E         	goto	l5002
  2520   001CAE                     u4050:
  2521   001CAE  C00F  F017         	movff	___fldiv@b,??___fldiv
  2522   001CB2  C010  F018         	movff	___fldiv@b+1,??___fldiv+1
  2523   001CB6  C011  F019         	movff	___fldiv@b+2,??___fldiv+2
  2524   001CBA  C012  F01A         	movff	___fldiv@b+3,??___fldiv+3
  2525   001CBE  341A               	rlcf	(??___fldiv+3)^0,w,c
  2526   001CC0  321A               	rrcf	(??___fldiv+3)^0,f,c
  2527   001CC2  3219               	rrcf	(??___fldiv+2)^0,f,c
  2528   001CC4  3218               	rrcf	(??___fldiv+1)^0,f,c
  2529   001CC6  3217               	rrcf	??___fldiv^0,f,c
  2530   001CC8  C017  F00F         	movff	??___fldiv,___fldiv@b
  2531   001CCC  C018  F010         	movff	??___fldiv+1,___fldiv@b+1
  2532   001CD0  C019  F011         	movff	??___fldiv+2,___fldiv@b+2
  2533   001CD4  C01A  F012         	movff	??___fldiv+3,___fldiv@b+3
  2534   001CD8  4A20               	infsnz	___fldiv@new_exp^0,f,c
  2535   001CDA  2A21               	incf	(___fldiv@new_exp+1)^0,f,c
  2536   001CDC                     l5002:
  2537   001CDC  BE21               	btfsc	(___fldiv@new_exp+1)^0,7,c
  2538   001CDE  EF79  F00E         	goto	u4061
  2539   001CE2  5021               	movf	(___fldiv@new_exp+1)^0,w,c
  2540   001CE4  E108               	bnz	u4060
  2541   001CE6  2820               	incf	___fldiv@new_exp^0,w,c
  2542   001CE8  A0D8               	btfss	status,0,c
  2543   001CEA  EF79  F00E         	goto	u4061
  2544   001CEE  EF7B  F00E         	goto	u4060
  2545   001CF2                     u4061:
  2546   001CF2  EF86  F00E         	goto	l5006
  2547   001CF6                     u4060:
  2548   001CF6  0E00               	movlw	0
  2549   001CF8  6E21               	movwf	(___fldiv@new_exp+1)^0,c
  2550   001CFA  6820               	setf	___fldiv@new_exp^0,c
  2551   001CFC  0E00               	movlw	0
  2552   001CFE  6E0F               	movwf	___fldiv@b^0,c
  2553   001D00  0E00               	movlw	0
  2554   001D02  6E10               	movwf	(___fldiv@b+1)^0,c
  2555   001D04  0E00               	movlw	0
  2556   001D06  6E11               	movwf	(___fldiv@b+2)^0,c
  2557   001D08  0E00               	movlw	0
  2558   001D0A  6E12               	movwf	(___fldiv@b+3)^0,c
  2559   001D0C                     l5006:
  2560   001D0C  BE21               	btfsc	(___fldiv@new_exp+1)^0,7,c
  2561   001D0E  EF93  F00E         	goto	u4070
  2562   001D12  5021               	movf	(___fldiv@new_exp+1)^0,w,c
  2563   001D14  E106               	bnz	u4071
  2564   001D16  0420               	decf	___fldiv@new_exp^0,w,c
  2565   001D18  B0D8               	btfsc	status,0,c
  2566   001D1A  EF91  F00E         	goto	u4071
  2567   001D1E  EF93  F00E         	goto	u4070
  2568   001D22                     u4071:
  2569   001D22  EFA1  F00E         	goto	l5010
  2570   001D26                     u4070:
  2571   001D26  0E00               	movlw	0
  2572   001D28  6E21               	movwf	(___fldiv@new_exp+1)^0,c
  2573   001D2A  0E00               	movlw	0
  2574   001D2C  6E20               	movwf	___fldiv@new_exp^0,c
  2575   001D2E  0E00               	movlw	0
  2576   001D30  6E0F               	movwf	___fldiv@b^0,c
  2577   001D32  0E00               	movlw	0
  2578   001D34  6E10               	movwf	(___fldiv@b+1)^0,c
  2579   001D36  0E00               	movlw	0
  2580   001D38  6E11               	movwf	(___fldiv@b+2)^0,c
  2581   001D3A  0E00               	movlw	0
  2582   001D3C  6E12               	movwf	(___fldiv@b+3)^0,c
  2583   001D3E  0E00               	movlw	0
  2584   001D40  6E1F               	movwf	___fldiv@sign^0,c
  2585   001D42                     l5010:
  2586   001D42  C020  F026         	movff	___fldiv@new_exp,___fldiv@bexp
  2587   001D46  A026               	btfss	___fldiv@bexp^0,0,c
  2588   001D48  EFA8  F00E         	goto	u4081
  2589   001D4C  EFAA  F00E         	goto	u4080
  2590   001D50                     u4081:
  2591   001D50  EFAD  F00E         	goto	l5016
  2592   001D54                     u4080:
  2593   001D54  8E11               	bsf	(___fldiv@b+2)^0,7,c
  2594   001D56  EFAE  F00E         	goto	l5018
  2595   001D5A                     l5016:
  2596   001D5A  9E11               	bcf	(___fldiv@b+2)^0,7,c
  2597   001D5C                     l5018:
  2598   001D5C  90D8               	bcf	status,0,c
  2599   001D5E  3026               	rrcf	___fldiv@bexp^0,w,c
  2600   001D60  6E12               	movwf	(___fldiv@b+3)^0,c
  2601   001D62  EF64  F00D         	goto	l4932
  2602   001D66                     l1872:
  2603   001D66  0012               	return		;funcret
  2604   001D68                     __end_of___fldiv:
  2605                           	callstack 0
  2606                           
  2607 ;; *************** function ___fladd *****************
  2608 ;; Defined at:
  2609 ;;		line 10 in file "D:\CodingPrograms\xc8\pic\sources\c99\common\sprcadd.c"
  2610 ;; Parameters:    Size  Location     Type
  2611 ;;  b               4   39[COMRAM] unsigned char 
  2612 ;;  a               4   43[COMRAM] unsigned char 
  2613 ;; Auto vars:     Size  Location     Type
  2614 ;;  grs             1   54[COMRAM] unsigned char 
  2615 ;;  bexp            1   53[COMRAM] unsigned char 
  2616 ;;  aexp            1   52[COMRAM] unsigned char 
  2617 ;;  signs           1   51[COMRAM] unsigned char 
  2618 ;; Return value:  Size  Location     Type
  2619 ;;                  4   39[COMRAM] unsigned char 
  2620 ;; Registers used:
  2621 ;;		wreg, status,2, status,0
  2622 ;; Tracked objects:
  2623 ;;		On entry : 0/0
  2624 ;;		On exit  : 0/0
  2625 ;;		Unchanged: 0/0
  2626 ;; Data sizes:     COMRAM   BANK0   BANK1   BANK2   BANK3   BANK4   BANK5   BANK6   BANK7   BANK8   BANK9  BANK10  BANK1
      +1  BANK12  BANK13  BANK14  BANK15
  2627 ;;      Params:         8       0       0       0       0       0       0       0       0       0       0       0       
      +0       0       0       0       0
  2628 ;;      Locals:         4       0       0       0       0       0       0       0       0       0       0       0       
      +0       0       0       0       0
  2629 ;;      Temps:          4       0       0       0       0       0       0       0       0       0       0       0       
      +0       0       0       0       0
  2630 ;;      Totals:        16       0       0       0       0       0       0       0       0       0       0       0       
      +0       0       0       0       0
  2631 ;;Total ram usage:       16 bytes
  2632 ;; Hardware stack levels used: 1
  2633 ;; Hardware stack levels required when called: 2
  2634 ;; This function calls:
  2635 ;;		Nothing
  2636 ;; This function is called by:
  2637 ;;		_Uart_Baud_Rate_Calculation
  2638 ;;		_CCP_Init
  2639 ;;		_CCP_PWM_Set_Duty
  2640 ;; This function uses a non-reentrant model
  2641 ;;
  2642                           
  2643                           	psect	text7
  2644   00150E                     __ptext7:
  2645                           	callstack 0
  2646   00150E                     ___fladd:
  2647                           	callstack 25
  2648   00150E  502B               	movf	(___fladd@b+3)^0,w,c
  2649   001510  0B80               	andlw	128
  2650   001512  6E34               	movwf	___fladd@signs^0,c
  2651   001514  502B               	movf	(___fladd@b+3)^0,w,c
  2652   001516  242B               	addwf	(___fladd@b+3)^0,w,c
  2653   001518  6E36               	movwf	___fladd@bexp^0,c
  2654   00151A  AE2A               	btfss	(___fladd@b+2)^0,7,c
  2655   00151C  EF92  F00A         	goto	u3471
  2656   001520  EF94  F00A         	goto	u3470
  2657   001524                     u3471:
  2658   001524  EF95  F00A         	goto	l4692
  2659   001528                     u3470:
  2660   001528  8036               	bsf	___fladd@bexp^0,0,c
  2661   00152A                     l4692:
  2662   00152A  5036               	movf	___fladd@bexp^0,w,c
  2663   00152C  B4D8               	btfsc	status,2,c
  2664   00152E  EF9B  F00A         	goto	u3481
  2665   001532  EF9D  F00A         	goto	u3480
  2666   001536                     u3481:
  2667   001536  EFB2  F00A         	goto	l4702
  2668   00153A                     u3480:
  2669   00153A  2836               	incf	___fladd@bexp^0,w,c
  2670   00153C  A4D8               	btfss	status,2,c
  2671   00153E  EFA3  F00A         	goto	u3491
  2672   001542  EFA5  F00A         	goto	u3490
  2673   001546                     u3491:
  2674   001546  EFAD  F00A         	goto	l4698
  2675   00154A                     u3490:
  2676   00154A  0E00               	movlw	0
  2677   00154C  6E28               	movwf	___fladd@b^0,c
  2678   00154E  0E00               	movlw	0
  2679   001550  6E29               	movwf	(___fladd@b+1)^0,c
  2680   001552  0E00               	movlw	0
  2681   001554  6E2A               	movwf	(___fladd@b+2)^0,c
  2682   001556  0E00               	movlw	0
  2683   001558  6E2B               	movwf	(___fladd@b+3)^0,c
  2684   00155A                     l4698:
  2685   00155A  8E2A               	bsf	(___fladd@b+2)^0,7,c
  2686   00155C  0E00               	movlw	0
  2687   00155E  6E2B               	movwf	(___fladd@b+3)^0,c
  2688   001560  EFBA  F00A         	goto	l4704
  2689   001564                     l4702:
  2690   001564  0E00               	movlw	0
  2691   001566  6E28               	movwf	___fladd@b^0,c
  2692   001568  0E00               	movlw	0
  2693   00156A  6E29               	movwf	(___fladd@b+1)^0,c
  2694   00156C  0E00               	movlw	0
  2695   00156E  6E2A               	movwf	(___fladd@b+2)^0,c
  2696   001570  0E00               	movlw	0
  2697   001572  6E2B               	movwf	(___fladd@b+3)^0,c
  2698   001574                     l4704:
  2699   001574  502F               	movf	(___fladd@a+3)^0,w,c
  2700   001576  0B80               	andlw	128
  2701   001578  6E35               	movwf	___fladd@aexp^0,c
  2702   00157A  5034               	movf	___fladd@signs^0,w,c
  2703   00157C  1835               	xorwf	___fladd@aexp^0,w,c
  2704   00157E  B4D8               	btfsc	status,2,c
  2705   001580  EFC4  F00A         	goto	u3501
  2706   001584  EFC6  F00A         	goto	u3500
  2707   001588                     u3501:
  2708   001588  EFC7  F00A         	goto	l4710
  2709   00158C                     u3500:
  2710   00158C  8C34               	bsf	___fladd@signs^0,6,c
  2711   00158E                     l4710:
  2712   00158E  502F               	movf	(___fladd@a+3)^0,w,c
  2713   001590  242F               	addwf	(___fladd@a+3)^0,w,c
  2714   001592  6E35               	movwf	___fladd@aexp^0,c
  2715   001594  AE2E               	btfss	(___fladd@a+2)^0,7,c
  2716   001596  EFCF  F00A         	goto	u3511
  2717   00159A  EFD1  F00A         	goto	u3510
  2718   00159E                     u3511:
  2719   00159E  EFD2  F00A         	goto	l4716
  2720   0015A2                     u3510:
  2721   0015A2  8035               	bsf	___fladd@aexp^0,0,c
  2722   0015A4                     l4716:
  2723   0015A4  5035               	movf	___fladd@aexp^0,w,c
  2724   0015A6  B4D8               	btfsc	status,2,c
  2725   0015A8  EFD8  F00A         	goto	u3521
  2726   0015AC  EFDA  F00A         	goto	u3520
  2727   0015B0                     u3521:
  2728   0015B0  EFEF  F00A         	goto	l4726
  2729   0015B4                     u3520:
  2730   0015B4  2835               	incf	___fladd@aexp^0,w,c
  2731   0015B6  A4D8               	btfss	status,2,c
  2732   0015B8  EFE0  F00A         	goto	u3531
  2733   0015BC  EFE2  F00A         	goto	u3530
  2734   0015C0                     u3531:
  2735   0015C0  EFEA  F00A         	goto	l4722
  2736   0015C4                     u3530:
  2737   0015C4  0E00               	movlw	0
  2738   0015C6  6E2C               	movwf	___fladd@a^0,c
  2739   0015C8  0E00               	movlw	0
  2740   0015CA  6E2D               	movwf	(___fladd@a+1)^0,c
  2741   0015CC  0E00               	movlw	0
  2742   0015CE  6E2E               	movwf	(___fladd@a+2)^0,c
  2743   0015D0  0E00               	movlw	0
  2744   0015D2  6E2F               	movwf	(___fladd@a+3)^0,c
  2745   0015D4                     l4722:
  2746   0015D4  8E2E               	bsf	(___fladd@a+2)^0,7,c
  2747   0015D6  0E00               	movlw	0
  2748   0015D8  6E2F               	movwf	(___fladd@a+3)^0,c
  2749   0015DA  EFF7  F00A         	goto	l4728
  2750   0015DE                     l4726:
  2751   0015DE  0E00               	movlw	0
  2752   0015E0  6E2C               	movwf	___fladd@a^0,c
  2753   0015E2  0E00               	movlw	0
  2754   0015E4  6E2D               	movwf	(___fladd@a+1)^0,c
  2755   0015E6  0E00               	movlw	0
  2756   0015E8  6E2E               	movwf	(___fladd@a+2)^0,c
  2757   0015EA  0E00               	movlw	0
  2758   0015EC  6E2F               	movwf	(___fladd@a+3)^0,c
  2759   0015EE                     l4728:
  2760   0015EE  5036               	movf	___fladd@bexp^0,w,c
  2761   0015F0  5C35               	subwf	___fladd@aexp^0,w,c
  2762   0015F2  B0D8               	btfsc	status,0,c
  2763   0015F4  EFFE  F00A         	goto	u3541
  2764   0015F8  EF00  F00B         	goto	u3540
  2765   0015FC                     u3541:
  2766   0015FC  EF27  F00B         	goto	l4764
  2767   001600                     u3540:
  2768   001600  AC34               	btfss	___fladd@signs^0,6,c
  2769   001602  EF05  F00B         	goto	u3551
  2770   001606  EF07  F00B         	goto	u3550
  2771   00160A                     u3551:
  2772   00160A  EF09  F00B         	goto	l4734
  2773   00160E                     u3550:
  2774   00160E  0E80               	movlw	128
  2775   001610  1A34               	xorwf	___fladd@signs^0,f,c
  2776   001612                     l4734:
  2777   001612  C036  F037         	movff	___fladd@bexp,___fladd@grs
  2778   001616  C035  F036         	movff	___fladd@aexp,___fladd@bexp
  2779   00161A  C037  F035         	movff	___fladd@grs,___fladd@aexp
  2780   00161E  C028  F037         	movff	___fladd@b,___fladd@grs
  2781   001622  C02C  F028         	movff	___fladd@a,___fladd@b
  2782   001626  C037  F02C         	movff	___fladd@grs,___fladd@a
  2783   00162A  C029  F037         	movff	___fladd@b+1,___fladd@grs
  2784   00162E  C02D  F029         	movff	___fladd@a+1,___fladd@b+1
  2785   001632  C037  F02D         	movff	___fladd@grs,___fladd@a+1
  2786   001636  C02A  F037         	movff	___fladd@b+2,___fladd@grs
  2787   00163A  C02E  F02A         	movff	___fladd@a+2,___fladd@b+2
  2788   00163E  C037  F02E         	movff	___fladd@grs,___fladd@a+2
  2789   001642  C02B  F037         	movff	___fladd@b+3,___fladd@grs
  2790   001646  C02F  F02B         	movff	___fladd@a+3,___fladd@b+3
  2791   00164A  C037  F02F         	movff	___fladd@grs,___fladd@a+3
  2792   00164E                     l4764:
  2793   00164E  0E00               	movlw	0
  2794   001650  6E37               	movwf	___fladd@grs^0,c
  2795   001652  5036               	movf	___fladd@bexp^0,w,c
  2796   001654  C035  F030         	movff	___fladd@aexp,??___fladd
  2797   001658  6A31               	clrf	(??___fladd+1)^0,c
  2798   00165A  5E30               	subwf	??___fladd^0,f,c
  2799   00165C  0E00               	movlw	0
  2800   00165E  5A31               	subwfb	(??___fladd+1)^0,f,c
  2801   001660  BE31               	btfsc	(??___fladd+1)^0,7,c
  2802   001662  EF3C  F00B         	goto	u3561
  2803   001666  5031               	movf	(??___fladd+1)^0,w,c
  2804   001668  E109               	bnz	u3560
  2805   00166A  0E1A               	movlw	26
  2806   00166C  5C30               	subwf	??___fladd^0,w,c
  2807   00166E  A0D8               	btfss	status,0,c
  2808   001670  EF3C  F00B         	goto	u3561
  2809   001674  EF3E  F00B         	goto	u3560
  2810   001678                     u3561:
  2811   001678  EF75  F00B         	goto	l1819
  2812   00167C                     u3560:
  2813   00167C  5028               	movf	___fladd@b^0,w,c
  2814   00167E  1029               	iorwf	(___fladd@b+1)^0,w,c
  2815   001680  102A               	iorwf	(___fladd@b+2)^0,w,c
  2816   001682  102B               	iorwf	(___fladd@b+3)^0,w,c
  2817   001684  A4D8               	btfss	status,2,c
  2818   001686  EF47  F00B         	goto	u3571
  2819   00168A  EF4A  F00B         	goto	u3570
  2820   00168E                     u3571:
  2821   00168E  0E01               	movlw	1
  2822   001690  EF4B  F00B         	goto	u3580
  2823   001694                     u3570:
  2824   001694  0E00               	movlw	0
  2825   001696                     u3580:
  2826   001696  6E37               	movwf	___fladd@grs^0,c
  2827   001698  0E00               	movlw	0
  2828   00169A  6E28               	movwf	___fladd@b^0,c
  2829   00169C  0E00               	movlw	0
  2830   00169E  6E29               	movwf	(___fladd@b+1)^0,c
  2831   0016A0  0E00               	movlw	0
  2832   0016A2  6E2A               	movwf	(___fladd@b+2)^0,c
  2833   0016A4  0E00               	movlw	0
  2834   0016A6  6E2B               	movwf	(___fladd@b+3)^0,c
  2835   0016A8  C035  F036         	movff	___fladd@aexp,___fladd@bexp
  2836   0016AC  EF7E  F00B         	goto	l1818
  2837   0016B0                     l1820:
  2838   0016B0  A037               	btfss	___fladd@grs^0,0,c
  2839   0016B2  EF5D  F00B         	goto	u3591
  2840   0016B6  EF5F  F00B         	goto	u3590
  2841   0016BA                     u3591:
  2842   0016BA  EF65  F00B         	goto	l4776
  2843   0016BE                     u3590:
  2844   0016BE  90D8               	bcf	status,0,c
  2845   0016C0  3037               	rrcf	___fladd@grs^0,w,c
  2846   0016C2  0901               	iorlw	1
  2847   0016C4  6E37               	movwf	___fladd@grs^0,c
  2848   0016C6  EF67  F00B         	goto	l4778
  2849   0016CA                     l4776:
  2850   0016CA  90D8               	bcf	status,0,c
  2851   0016CC  3237               	rrcf	___fladd@grs^0,f,c
  2852   0016CE                     l4778:
  2853   0016CE  A028               	btfss	___fladd@b^0,0,c
  2854   0016D0  EF6C  F00B         	goto	u3601
  2855   0016D4  EF6E  F00B         	goto	u3600
  2856   0016D8                     u3601:
  2857   0016D8  EF6F  F00B         	goto	l4782
  2858   0016DC                     u3600:
  2859   0016DC  8E37               	bsf	___fladd@grs^0,7,c
  2860   0016DE                     l4782:
  2861   0016DE  342B               	rlcf	(___fladd@b+3)^0,w,c
  2862   0016E0  322B               	rrcf	(___fladd@b+3)^0,f,c
  2863   0016E2  322A               	rrcf	(___fladd@b+2)^0,f,c
  2864   0016E4  3229               	rrcf	(___fladd@b+1)^0,f,c
  2865   0016E6  3228               	rrcf	___fladd@b^0,f,c
  2866   0016E8  2A36               	incf	___fladd@bexp^0,f,c
  2867   0016EA                     l1819:
  2868   0016EA  5035               	movf	___fladd@aexp^0,w,c
  2869   0016EC  5C36               	subwf	___fladd@bexp^0,w,c
  2870   0016EE  A0D8               	btfss	status,0,c
  2871   0016F0  EF7C  F00B         	goto	u3611
  2872   0016F4  EF7E  F00B         	goto	u3610
  2873   0016F8                     u3611:
  2874   0016F8  EF58  F00B         	goto	l1820
  2875   0016FC                     u3610:
  2876   0016FC                     l1818:
  2877   0016FC  BC34               	btfsc	___fladd@signs^0,6,c
  2878   0016FE  EF83  F00B         	goto	u3621
  2879   001702  EF85  F00B         	goto	u3620
  2880   001706                     u3621:
  2881   001706  EFC5  F00B         	goto	l4810
  2882   00170A                     u3620:
  2883   00170A  5036               	movf	___fladd@bexp^0,w,c
  2884   00170C  A4D8               	btfss	status,2,c
  2885   00170E  EF8B  F00B         	goto	u3631
  2886   001712  EF8D  F00B         	goto	u3630
  2887   001716                     u3631:
  2888   001716  EF97  F00B         	goto	l4792
  2889   00171A                     u3630:
  2890   00171A  0E00               	movlw	0
  2891   00171C  6E28               	movwf	?___fladd^0,c
  2892   00171E  0E00               	movlw	0
  2893   001720  6E29               	movwf	(?___fladd+1)^0,c
  2894   001722  0E00               	movlw	0
  2895   001724  6E2A               	movwf	(?___fladd+2)^0,c
  2896   001726  0E00               	movlw	0
  2897   001728  6E2B               	movwf	(?___fladd+3)^0,c
  2898   00172A  EFE6  F00C         	goto	l1827
  2899   00172E                     l4792:
  2900   00172E  502C               	movf	___fladd@a^0,w,c
  2901   001730  2628               	addwf	___fladd@b^0,f,c
  2902   001732  502D               	movf	(___fladd@a+1)^0,w,c
  2903   001734  2229               	addwfc	(___fladd@b+1)^0,f,c
  2904   001736  502E               	movf	(___fladd@a+2)^0,w,c
  2905   001738  222A               	addwfc	(___fladd@b+2)^0,f,c
  2906   00173A  502F               	movf	(___fladd@a+3)^0,w,c
  2907   00173C  222B               	addwfc	(___fladd@b+3)^0,f,c
  2908   00173E  A02B               	btfss	(___fladd@b+3)^0,0,c
  2909   001740  EFA4  F00B         	goto	u3641
  2910   001744  EFA6  F00B         	goto	u3640
  2911   001748                     u3641:
  2912   001748  EF52  F00C         	goto	l4846
  2913   00174C                     u3640:
  2914   00174C  A037               	btfss	___fladd@grs^0,0,c
  2915   00174E  EFAB  F00B         	goto	u3651
  2916   001752  EFAD  F00B         	goto	u3650
  2917   001756                     u3651:
  2918   001756  EFB3  F00B         	goto	l4800
  2919   00175A                     u3650:
  2920   00175A  90D8               	bcf	status,0,c
  2921   00175C  3037               	rrcf	___fladd@grs^0,w,c
  2922   00175E  0901               	iorlw	1
  2923   001760  6E37               	movwf	___fladd@grs^0,c
  2924   001762  EFB5  F00B         	goto	l4802
  2925   001766                     l4800:
  2926   001766  90D8               	bcf	status,0,c
  2927   001768  3237               	rrcf	___fladd@grs^0,f,c
  2928   00176A                     l4802:
  2929   00176A  A028               	btfss	___fladd@b^0,0,c
  2930   00176C  EFBA  F00B         	goto	u3661
  2931   001770  EFBC  F00B         	goto	u3660
  2932   001774                     u3661:
  2933   001774  EFBD  F00B         	goto	l4806
  2934   001778                     u3660:
  2935   001778  8E37               	bsf	___fladd@grs^0,7,c
  2936   00177A                     l4806:
  2937   00177A  342B               	rlcf	(___fladd@b+3)^0,w,c
  2938   00177C  322B               	rrcf	(___fladd@b+3)^0,f,c
  2939   00177E  322A               	rrcf	(___fladd@b+2)^0,f,c
  2940   001780  3229               	rrcf	(___fladd@b+1)^0,f,c
  2941   001782  3228               	rrcf	___fladd@b^0,f,c
  2942   001784  2A36               	incf	___fladd@bexp^0,f,c
  2943   001786  EF52  F00C         	goto	l4846
  2944   00178A                     l4810:
  2945   00178A  502C               	movf	___fladd@a^0,w,c
  2946   00178C  5C28               	subwf	___fladd@b^0,w,c
  2947   00178E  502D               	movf	(___fladd@a+1)^0,w,c
  2948   001790  5829               	subwfb	(___fladd@b+1)^0,w,c
  2949   001792  502E               	movf	(___fladd@a+2)^0,w,c
  2950   001794  582A               	subwfb	(___fladd@b+2)^0,w,c
  2951   001796  502B               	movf	(___fladd@b+3)^0,w,c
  2952   001798  0A80               	xorlw	128
  2953   00179A  6E30               	movwf	??___fladd^0,c
  2954   00179C  502F               	movf	(___fladd@a+3)^0,w,c
  2955   00179E  0A80               	xorlw	128
  2956   0017A0  5830               	subwfb	??___fladd^0,w,c
  2957   0017A2  B0D8               	btfsc	status,0,c
  2958   0017A4  EFD6  F00B         	goto	u3671
  2959   0017A8  EFD8  F00B         	goto	u3670
  2960   0017AC                     u3671:
  2961   0017AC  EF03  F00C         	goto	l4820
  2962   0017B0                     u3670:
  2963   0017B0  5028               	movf	___fladd@b^0,w,c
  2964   0017B2  5C2C               	subwf	___fladd@a^0,w,c
  2965   0017B4  6E30               	movwf	??___fladd^0,c
  2966   0017B6  5029               	movf	(___fladd@b+1)^0,w,c
  2967   0017B8  582D               	subwfb	(___fladd@a+1)^0,w,c
  2968   0017BA  6E31               	movwf	(??___fladd+1)^0,c
  2969   0017BC  502A               	movf	(___fladd@b+2)^0,w,c
  2970   0017BE  582E               	subwfb	(___fladd@a+2)^0,w,c
  2971   0017C0  6E32               	movwf	(??___fladd+2)^0,c
  2972   0017C2  502B               	movf	(___fladd@b+3)^0,w,c
  2973   0017C4  582F               	subwfb	(___fladd@a+3)^0,w,c
  2974   0017C6  6E33               	movwf	(??___fladd+3)^0,c
  2975   0017C8  0EFF               	movlw	255
  2976   0017CA  2430               	addwf	??___fladd^0,w,c
  2977   0017CC  6E28               	movwf	___fladd@b^0,c
  2978   0017CE  0EFF               	movlw	255
  2979   0017D0  2031               	addwfc	(??___fladd+1)^0,w,c
  2980   0017D2  6E29               	movwf	(___fladd@b+1)^0,c
  2981   0017D4  0EFF               	movlw	255
  2982   0017D6  2032               	addwfc	(??___fladd+2)^0,w,c
  2983   0017D8  6E2A               	movwf	(___fladd@b+2)^0,c
  2984   0017DA  0EFF               	movlw	255
  2985   0017DC  2033               	addwfc	(??___fladd+3)^0,w,c
  2986   0017DE  6E2B               	movwf	(___fladd@b+3)^0,c
  2987   0017E0  0E80               	movlw	128
  2988   0017E2  1A34               	xorwf	___fladd@signs^0,f,c
  2989   0017E4  6C37               	negf	___fladd@grs^0,c
  2990   0017E6  5037               	movf	___fladd@grs^0,w,c
  2991   0017E8  A4D8               	btfss	status,2,c
  2992   0017EA  EFF9  F00B         	goto	u3681
  2993   0017EE  EFFB  F00B         	goto	u3680
  2994   0017F2                     u3681:
  2995   0017F2  EF0B  F00C         	goto	l1835
  2996   0017F6                     u3680:
  2997   0017F6  0E01               	movlw	1
  2998   0017F8  2628               	addwf	___fladd@b^0,f,c
  2999   0017FA  0E00               	movlw	0
  3000   0017FC  2229               	addwfc	(___fladd@b+1)^0,f,c
  3001   0017FE  222A               	addwfc	(___fladd@b+2)^0,f,c
  3002   001800  222B               	addwfc	(___fladd@b+3)^0,f,c
  3003   001802  EF0B  F00C         	goto	l1835
  3004   001806                     l4820:
  3005   001806  502C               	movf	___fladd@a^0,w,c
  3006   001808  5E28               	subwf	___fladd@b^0,f,c
  3007   00180A  502D               	movf	(___fladd@a+1)^0,w,c
  3008   00180C  5A29               	subwfb	(___fladd@b+1)^0,f,c
  3009   00180E  502E               	movf	(___fladd@a+2)^0,w,c
  3010   001810  5A2A               	subwfb	(___fladd@b+2)^0,f,c
  3011   001812  502F               	movf	(___fladd@a+3)^0,w,c
  3012   001814  5A2B               	subwfb	(___fladd@b+3)^0,f,c
  3013   001816                     l1835:
  3014   001816  5028               	movf	___fladd@b^0,w,c
  3015   001818  1029               	iorwf	(___fladd@b+1)^0,w,c
  3016   00181A  102A               	iorwf	(___fladd@b+2)^0,w,c
  3017   00181C  102B               	iorwf	(___fladd@b+3)^0,w,c
  3018   00181E  A4D8               	btfss	status,2,c
  3019   001820  EF14  F00C         	goto	u3691
  3020   001824  EF16  F00C         	goto	u3690
  3021   001828                     u3691:
  3022   001828  EF4B  F00C         	goto	l4844
  3023   00182C                     u3690:
  3024   00182C  5037               	movf	___fladd@grs^0,w,c
  3025   00182E  A4D8               	btfss	status,2,c
  3026   001830  EF1C  F00C         	goto	u3701
  3027   001834  EF1E  F00C         	goto	u3700
  3028   001838                     u3701:
  3029   001838  EF4B  F00C         	goto	l4844
  3030   00183C                     u3700:
  3031   00183C  0E00               	movlw	0
  3032   00183E  6E28               	movwf	?___fladd^0,c
  3033   001840  0E00               	movlw	0
  3034   001842  6E29               	movwf	(?___fladd+1)^0,c
  3035   001844  0E00               	movlw	0
  3036   001846  6E2A               	movwf	(?___fladd+2)^0,c
  3037   001848  0E00               	movlw	0
  3038   00184A  6E2B               	movwf	(?___fladd+3)^0,c
  3039   00184C  EFE6  F00C         	goto	l1827
  3040   001850                     l4828:
  3041   001850  90D8               	bcf	status,0,c
  3042   001852  3628               	rlcf	___fladd@b^0,f,c
  3043   001854  3629               	rlcf	(___fladd@b+1)^0,f,c
  3044   001856  362A               	rlcf	(___fladd@b+2)^0,f,c
  3045   001858  362B               	rlcf	(___fladd@b+3)^0,f,c
  3046   00185A  AE37               	btfss	___fladd@grs^0,7,c
  3047   00185C  EF32  F00C         	goto	u3711
  3048   001860  EF34  F00C         	goto	u3710
  3049   001864                     u3711:
  3050   001864  EF35  F00C         	goto	l4834
  3051   001868                     u3710:
  3052   001868  8028               	bsf	___fladd@b^0,0,c
  3053   00186A                     l4834:
  3054   00186A  A037               	btfss	___fladd@grs^0,0,c
  3055   00186C  EF3A  F00C         	goto	u3721
  3056   001870  EF3C  F00C         	goto	u3720
  3057   001874                     u3721:
  3058   001874  EF40  F00C         	goto	l4838
  3059   001878                     u3720:
  3060   001878  80D8               	bsf	status,0,c
  3061   00187A  3637               	rlcf	___fladd@grs^0,f,c
  3062   00187C  EF42  F00C         	goto	l4840
  3063   001880                     l4838:
  3064   001880  90D8               	bcf	status,0,c
  3065   001882  3637               	rlcf	___fladd@grs^0,f,c
  3066   001884                     l4840:
  3067   001884  5036               	movf	___fladd@bexp^0,w,c
  3068   001886  B4D8               	btfsc	status,2,c
  3069   001888  EF48  F00C         	goto	u3731
  3070   00188C  EF4A  F00C         	goto	u3730
  3071   001890                     u3731:
  3072   001890  EF4B  F00C         	goto	l4844
  3073   001894                     u3730:
  3074   001894  0636               	decf	___fladd@bexp^0,f,c
  3075   001896                     l4844:
  3076   001896  AE2A               	btfss	(___fladd@b+2)^0,7,c
  3077   001898  EF50  F00C         	goto	u3741
  3078   00189C  EF52  F00C         	goto	u3740
  3079   0018A0                     u3741:
  3080   0018A0  EF28  F00C         	goto	l4828
  3081   0018A4                     u3740:
  3082   0018A4                     l4846:
  3083   0018A4  0E00               	movlw	0
  3084   0018A6  6E35               	movwf	___fladd@aexp^0,c
  3085   0018A8  AE37               	btfss	___fladd@grs^0,7,c
  3086   0018AA  EF59  F00C         	goto	u3751
  3087   0018AE  EF5B  F00C         	goto	u3750
  3088   0018B2                     u3751:
  3089   0018B2  EF73  F00C         	goto	l1844
  3090   0018B6                     u3750:
  3091   0018B6  C037  F030         	movff	___fladd@grs,??___fladd
  3092   0018BA  0E7F               	movlw	127
  3093   0018BC  1630               	andwf	??___fladd^0,f,c
  3094   0018BE  B4D8               	btfsc	status,2,c
  3095   0018C0  EF64  F00C         	goto	u3761
  3096   0018C4  EF66  F00C         	goto	u3760
  3097   0018C8                     u3761:
  3098   0018C8  EF6A  F00C         	goto	l1845
  3099   0018CC                     u3760:
  3100   0018CC                     l4852:
  3101   0018CC  0E01               	movlw	1
  3102   0018CE  6E35               	movwf	___fladd@aexp^0,c
  3103   0018D0  EF73  F00C         	goto	l1844
  3104   0018D4                     l1845:
  3105   0018D4  A028               	btfss	___fladd@b^0,0,c
  3106   0018D6  EF6F  F00C         	goto	u3771
  3107   0018DA  EF71  F00C         	goto	u3770
  3108   0018DE                     u3771:
  3109   0018DE  EF73  F00C         	goto	l1844
  3110   0018E2                     u3770:
  3111   0018E2  EF66  F00C         	goto	l4852
  3112   0018E6                     l1844:
  3113   0018E6  5035               	movf	___fladd@aexp^0,w,c
  3114   0018E8  B4D8               	btfsc	status,2,c
  3115   0018EA  EF79  F00C         	goto	u3781
  3116   0018EE  EF7B  F00C         	goto	u3780
  3117   0018F2                     u3781:
  3118   0018F2  EFA6  F00C         	goto	l4864
  3119   0018F6                     u3780:
  3120   0018F6  0E01               	movlw	1
  3121   0018F8  2628               	addwf	___fladd@b^0,f,c
  3122   0018FA  0E00               	movlw	0
  3123   0018FC  2229               	addwfc	(___fladd@b+1)^0,f,c
  3124   0018FE  222A               	addwfc	(___fladd@b+2)^0,f,c
  3125   001900  222B               	addwfc	(___fladd@b+3)^0,f,c
  3126   001902  A02B               	btfss	(___fladd@b+3)^0,0,c
  3127   001904  EF86  F00C         	goto	u3791
  3128   001908  EF88  F00C         	goto	u3790
  3129   00190C                     u3791:
  3130   00190C  EFA6  F00C         	goto	l4864
  3131   001910                     u3790:
  3132   001910  C028  F030         	movff	___fladd@b,??___fladd
  3133   001914  C029  F031         	movff	___fladd@b+1,??___fladd+1
  3134   001918  C02A  F032         	movff	___fladd@b+2,??___fladd+2
  3135   00191C  C02B  F033         	movff	___fladd@b+3,??___fladd+3
  3136   001920  3433               	rlcf	(??___fladd+3)^0,w,c
  3137   001922  3233               	rrcf	(??___fladd+3)^0,f,c
  3138   001924  3232               	rrcf	(??___fladd+2)^0,f,c
  3139   001926  3231               	rrcf	(??___fladd+1)^0,f,c
  3140   001928  3230               	rrcf	??___fladd^0,f,c
  3141   00192A  C030  F028         	movff	??___fladd,___fladd@b
  3142   00192E  C031  F029         	movff	??___fladd+1,___fladd@b+1
  3143   001932  C032  F02A         	movff	??___fladd+2,___fladd@b+2
  3144   001936  C033  F02B         	movff	??___fladd+3,___fladd@b+3
  3145   00193A  2836               	incf	___fladd@bexp^0,w,c
  3146   00193C  B4D8               	btfsc	status,2,c
  3147   00193E  EFA3  F00C         	goto	u3801
  3148   001942  EFA5  F00C         	goto	u3800
  3149   001946                     u3801:
  3150   001946  EFA6  F00C         	goto	l4864
  3151   00194A                     u3800:
  3152   00194A  2A36               	incf	___fladd@bexp^0,f,c
  3153   00194C                     l4864:
  3154   00194C  2836               	incf	___fladd@bexp^0,w,c
  3155   00194E  B4D8               	btfsc	status,2,c
  3156   001950  EFAC  F00C         	goto	u3811
  3157   001954  EFAE  F00C         	goto	u3810
  3158   001958                     u3811:
  3159   001958  EFB6  F00C         	goto	l4868
  3160   00195C                     u3810:
  3161   00195C  5036               	movf	___fladd@bexp^0,w,c
  3162   00195E  A4D8               	btfss	status,2,c
  3163   001960  EFB4  F00C         	goto	u3821
  3164   001964  EFB6  F00C         	goto	u3820
  3165   001968                     u3821:
  3166   001968  EFC8  F00C         	goto	l4872
  3167   00196C                     u3820:
  3168   00196C                     l4868:
  3169   00196C  0E00               	movlw	0
  3170   00196E  6E28               	movwf	___fladd@b^0,c
  3171   001970  0E00               	movlw	0
  3172   001972  6E29               	movwf	(___fladd@b+1)^0,c
  3173   001974  0E00               	movlw	0
  3174   001976  6E2A               	movwf	(___fladd@b+2)^0,c
  3175   001978  0E00               	movlw	0
  3176   00197A  6E2B               	movwf	(___fladd@b+3)^0,c
  3177   00197C  5036               	movf	___fladd@bexp^0,w,c
  3178   00197E  A4D8               	btfss	status,2,c
  3179   001980  EFC4  F00C         	goto	u3831
  3180   001984  EFC6  F00C         	goto	u3830
  3181   001988                     u3831:
  3182   001988  EFC8  F00C         	goto	l4872
  3183   00198C                     u3830:
  3184   00198C  0E00               	movlw	0
  3185   00198E  6E34               	movwf	___fladd@signs^0,c
  3186   001990                     l4872:
  3187   001990  A036               	btfss	___fladd@bexp^0,0,c
  3188   001992  EFCD  F00C         	goto	u3841
  3189   001996  EFCF  F00C         	goto	u3840
  3190   00199A                     u3841:
  3191   00199A  EFD2  F00C         	goto	l4876
  3192   00199E                     u3840:
  3193   00199E  8E2A               	bsf	(___fladd@b+2)^0,7,c
  3194   0019A0  EFD3  F00C         	goto	l4878
  3195   0019A4                     l4876:
  3196   0019A4  9E2A               	bcf	(___fladd@b+2)^0,7,c
  3197   0019A6                     l4878:
  3198   0019A6  90D8               	bcf	status,0,c
  3199   0019A8  3036               	rrcf	___fladd@bexp^0,w,c
  3200   0019AA  6E2B               	movwf	(___fladd@b+3)^0,c
  3201   0019AC  AE34               	btfss	___fladd@signs^0,7,c
  3202   0019AE  EFDB  F00C         	goto	u3851
  3203   0019B2  EFDD  F00C         	goto	u3850
  3204   0019B6                     u3851:
  3205   0019B6  EFDE  F00C         	goto	l4884
  3206   0019BA                     u3850:
  3207   0019BA  8E2B               	bsf	(___fladd@b+3)^0,7,c
  3208   0019BC                     l4884:
  3209   0019BC  C028  F028         	movff	___fladd@b,?___fladd
  3210   0019C0  C029  F029         	movff	___fladd@b+1,?___fladd+1
  3211   0019C4  C02A  F02A         	movff	___fladd@b+2,?___fladd+2
  3212   0019C8  C02B  F02B         	movff	___fladd@b+3,?___fladd+3
  3213   0019CC                     l1827:
  3214   0019CC  0012               	return		;funcret
  3215   0019CE                     __end_of___fladd:
  3216                           	callstack 0
  3217                           
  3218 ;; *************** function _Uart_ASYNC_TX_Init *****************
  3219 ;; Defined at:
  3220 ;;		line 111 in file "MCAL_Layer/USART/usart.c"
  3221 ;; Parameters:    Size  Location     Type
  3222 ;;  _eusart         1    0[COMRAM] PTR const struct .
  3223 ;;		 -> uart_init@obj(16), 
  3224 ;; Auto vars:     Size  Location     Type
  3225 ;;		None
  3226 ;; Return value:  Size  Location     Type
  3227 ;;                  1    wreg      void 
  3228 ;; Registers used:
  3229 ;;		wreg, fsr2l, fsr2h, status,2, status,0
  3230 ;; Tracked objects:
  3231 ;;		On entry : 0/0
  3232 ;;		On exit  : 0/0
  3233 ;;		Unchanged: 0/0
  3234 ;; Data sizes:     COMRAM   BANK0   BANK1   BANK2   BANK3   BANK4   BANK5   BANK6   BANK7   BANK8   BANK9  BANK10  BANK1
      +1  BANK12  BANK13  BANK14  BANK15
  3235 ;;      Params:         1       0       0       0       0       0       0       0       0       0       0       0       
      +0       0       0       0       0
  3236 ;;      Locals:         0       0       0       0       0       0       0       0       0       0       0       0       
      +0       0       0       0       0
  3237 ;;      Temps:          0       0       0       0       0       0       0       0       0       0       0       0       
      +0       0       0       0       0
  3238 ;;      Totals:         1       0       0       0       0       0       0       0       0       0       0       0       
      +0       0       0       0       0
  3239 ;;Total ram usage:        1 bytes
  3240 ;; Hardware stack levels used: 1
  3241 ;; Hardware stack levels required when called: 2
  3242 ;; This function calls:
  3243 ;;		Nothing
  3244 ;; This function is called by:
  3245 ;;		_Uart_Init
  3246 ;; This function uses a non-reentrant model
  3247 ;;
  3248                           
  3249                           	psect	text8
  3250   00240E                     __ptext8:
  3251                           	callstack 0
  3252   00240E                     _Uart_ASYNC_TX_Init:
  3253                           	callstack 26
  3254   00240E                     
  3255                           ;MCAL_Layer/USART/usart.c: 112:     if(1 == _eusart->usart_tx_cfg.usart_tx_enable){
  3256   00240E  5001               	movf	Uart_ASYNC_TX_Init@_eusart^0,w,c
  3257   002410  6ED9               	movwf	fsr2l,c
  3258   002412  6ADA               	clrf	fsr2h,c
  3259   002414  0E04               	movlw	4
  3260   002416  26D9               	addwf	fsr2l,f,c
  3261   002418  A0DF               	btfss	indf2,0,c
  3262   00241A  EF11  F012         	goto	u4301
  3263   00241E  EF13  F012         	goto	u4300
  3264   002422                     u4301:
  3265   002422  EF4E  F012         	goto	l1274
  3266   002426                     u4300:
  3267   002426                     
  3268                           ;MCAL_Layer/USART/usart.c: 113:         TXSTAbits.TXEN = 1;
  3269   002426  8AAC               	bsf	172,5,c	;volatile
  3270   002428                     
  3271                           ;MCAL_Layer/USART/usart.c: 116:         if(1 == _eusart->usart_tx_cfg.usart_tx_interrupt
      +                          _enable){
  3272   002428  5001               	movf	Uart_ASYNC_TX_Init@_eusart^0,w,c
  3273   00242A  6ED9               	movwf	fsr2l,c
  3274   00242C  6ADA               	clrf	fsr2h,c
  3275   00242E  0E04               	movlw	4
  3276   002430  26D9               	addwf	fsr2l,f,c
  3277   002432  A2DF               	btfss	indf2,1,c
  3278   002434  EF1E  F012         	goto	u4311
  3279   002438  EF20  F012         	goto	u4310
  3280   00243C                     u4311:
  3281   00243C  EF23  F012         	goto	l5192
  3282   002440                     u4310:
  3283   002440                     
  3284                           ;MCAL_Layer/USART/usart.c: 117:             PIE1bits.TXIE = 1;
  3285   002440  889D               	bsf	157,4,c	;volatile
  3286                           
  3287                           ;MCAL_Layer/USART/usart.c: 140:         }
  3288   002442  EF30  F012         	goto	l5196
  3289   002446                     l5192:
  3290   002446  5001               	movf	Uart_ASYNC_TX_Init@_eusart^0,w,c
  3291   002448  6ED9               	movwf	fsr2l,c
  3292   00244A  6ADA               	clrf	fsr2h,c
  3293   00244C  0E04               	movlw	4
  3294   00244E  26D9               	addwf	fsr2l,f,c
  3295   002450  B2DF               	btfsc	indf2,1,c
  3296   002452  EF2D  F012         	goto	u4321
  3297   002456  EF2F  F012         	goto	u4320
  3298   00245A                     u4321:
  3299   00245A  EF30  F012         	goto	l5196
  3300   00245E                     u4320:
  3301   00245E                     
  3302                           ;MCAL_Layer/USART/usart.c: 142:             PIE1bits.TXIE = 0;
  3303   00245E  989D               	bcf	157,4,c	;volatile
  3304   002460                     l5196:
  3305                           
  3306                           ;MCAL_Layer/USART/usart.c: 147:         if(1 == _eusart->usart_tx_cfg.usart_tx_9bit_enab
      +                          le){
  3307   002460  5001               	movf	Uart_ASYNC_TX_Init@_eusart^0,w,c
  3308   002462  6ED9               	movwf	fsr2l,c
  3309   002464  6ADA               	clrf	fsr2h,c
  3310   002466  0E04               	movlw	4
  3311   002468  26D9               	addwf	fsr2l,f,c
  3312   00246A  A4DF               	btfss	indf2,2,c
  3313   00246C  EF3A  F012         	goto	u4331
  3314   002470  EF3C  F012         	goto	u4330
  3315   002474                     u4331:
  3316   002474  EF3F  F012         	goto	l5200
  3317   002478                     u4330:
  3318   002478                     
  3319                           ;MCAL_Layer/USART/usart.c: 148:             TXSTAbits.TX9 = 1;
  3320   002478  8CAC               	bsf	172,6,c	;volatile
  3321                           
  3322                           ;MCAL_Layer/USART/usart.c: 149:         }
  3323   00247A  EF4E  F012         	goto	l1274
  3324   00247E                     l5200:
  3325   00247E  5001               	movf	Uart_ASYNC_TX_Init@_eusart^0,w,c
  3326   002480  6ED9               	movwf	fsr2l,c
  3327   002482  6ADA               	clrf	fsr2h,c
  3328   002484  0E04               	movlw	4
  3329   002486  26D9               	addwf	fsr2l,f,c
  3330   002488  B4DF               	btfsc	indf2,2,c
  3331   00248A  EF49  F012         	goto	u4341
  3332   00248E  EF4B  F012         	goto	u4340
  3333   002492                     u4341:
  3334   002492  EF4E  F012         	goto	l1270
  3335   002496                     u4340:
  3336   002496                     
  3337                           ;MCAL_Layer/USART/usart.c: 151:             TXSTAbits.TX9 = 0;
  3338   002496  9CAC               	bcf	172,6,c	;volatile
  3339                           
  3340                           ;MCAL_Layer/USART/usart.c: 152:         }
  3341   002498  EF4E  F012         	goto	l1274
  3342   00249C                     l1270:
  3343   00249C                     l1274:
  3344   00249C  0012               	return		;funcret
  3345   00249E                     __end_of_Uart_ASYNC_TX_Init:
  3346                           	callstack 0
  3347                           
  3348 ;; *************** function _Uart_ASYNC_RX_Init *****************
  3349 ;; Defined at:
  3350 ;;		line 158 in file "MCAL_Layer/USART/usart.c"
  3351 ;; Parameters:    Size  Location     Type
  3352 ;;  _eusart         1    0[COMRAM] PTR const struct .
  3353 ;;		 -> uart_init@obj(16), 
  3354 ;; Auto vars:     Size  Location     Type
  3355 ;;		None
  3356 ;; Return value:  Size  Location     Type
  3357 ;;                  1    wreg      void 
  3358 ;; Registers used:
  3359 ;;		wreg, fsr2l, fsr2h, status,2, status,0
  3360 ;; Tracked objects:
  3361 ;;		On entry : 0/0
  3362 ;;		On exit  : 0/0
  3363 ;;		Unchanged: 0/0
  3364 ;; Data sizes:     COMRAM   BANK0   BANK1   BANK2   BANK3   BANK4   BANK5   BANK6   BANK7   BANK8   BANK9  BANK10  BANK1
      +1  BANK12  BANK13  BANK14  BANK15
  3365 ;;      Params:         1       0       0       0       0       0       0       0       0       0       0       0       
      +0       0       0       0       0
  3366 ;;      Locals:         0       0       0       0       0       0       0       0       0       0       0       0       
      +0       0       0       0       0
  3367 ;;      Temps:          0       0       0       0       0       0       0       0       0       0       0       0       
      +0       0       0       0       0
  3368 ;;      Totals:         1       0       0       0       0       0       0       0       0       0       0       0       
      +0       0       0       0       0
  3369 ;;Total ram usage:        1 bytes
  3370 ;; Hardware stack levels used: 1
  3371 ;; Hardware stack levels required when called: 2
  3372 ;; This function calls:
  3373 ;;		Nothing
  3374 ;; This function is called by:
  3375 ;;		_Uart_Init
  3376 ;; This function uses a non-reentrant model
  3377 ;;
  3378                           
  3379                           	psect	text9
  3380   00249E                     __ptext9:
  3381                           	callstack 0
  3382   00249E                     _Uart_ASYNC_RX_Init:
  3383                           	callstack 26
  3384   00249E                     
  3385                           ;MCAL_Layer/USART/usart.c: 159:     if(1 == _eusart->usart_rx_cfg.usart_rx_enable){
  3386   00249E  5001               	movf	Uart_ASYNC_RX_Init@_eusart^0,w,c
  3387   0024A0  6ED9               	movwf	fsr2l,c
  3388   0024A2  6ADA               	clrf	fsr2h,c
  3389   0024A4  0E06               	movlw	6
  3390   0024A6  26D9               	addwf	fsr2l,f,c
  3391   0024A8  A0DF               	btfss	indf2,0,c
  3392   0024AA  EF59  F012         	goto	u4351
  3393   0024AE  EF5B  F012         	goto	u4350
  3394   0024B2                     u4351:
  3395   0024B2  EF96  F012         	goto	l1287
  3396   0024B6                     u4350:
  3397   0024B6                     
  3398                           ;MCAL_Layer/USART/usart.c: 160:         RCSTAbits.CREN = 1;
  3399   0024B6  88AB               	bsf	171,4,c	;volatile
  3400   0024B8                     
  3401                           ;MCAL_Layer/USART/usart.c: 165:         if(1 == _eusart->usart_rx_cfg.usart_rx_interrupt
      +                          _enable){
  3402   0024B8  5001               	movf	Uart_ASYNC_RX_Init@_eusart^0,w,c
  3403   0024BA  6ED9               	movwf	fsr2l,c
  3404   0024BC  6ADA               	clrf	fsr2h,c
  3405   0024BE  0E06               	movlw	6
  3406   0024C0  26D9               	addwf	fsr2l,f,c
  3407   0024C2  A2DF               	btfss	indf2,1,c
  3408   0024C4  EF66  F012         	goto	u4361
  3409   0024C8  EF68  F012         	goto	u4360
  3410   0024CC                     u4361:
  3411   0024CC  EF6B  F012         	goto	l5212
  3412   0024D0                     u4360:
  3413   0024D0                     
  3414                           ;MCAL_Layer/USART/usart.c: 166:             PIE1bits.RCIE = 1;
  3415   0024D0  8A9D               	bsf	157,5,c	;volatile
  3416                           
  3417                           ;MCAL_Layer/USART/usart.c: 189:         }
  3418   0024D2  EF78  F012         	goto	l5216
  3419   0024D6                     l5212:
  3420   0024D6  5001               	movf	Uart_ASYNC_RX_Init@_eusart^0,w,c
  3421   0024D8  6ED9               	movwf	fsr2l,c
  3422   0024DA  6ADA               	clrf	fsr2h,c
  3423   0024DC  0E06               	movlw	6
  3424   0024DE  26D9               	addwf	fsr2l,f,c
  3425   0024E0  B2DF               	btfsc	indf2,1,c
  3426   0024E2  EF75  F012         	goto	u4371
  3427   0024E6  EF77  F012         	goto	u4370
  3428   0024EA                     u4371:
  3429   0024EA  EF78  F012         	goto	l5216
  3430   0024EE                     u4370:
  3431   0024EE                     
  3432                           ;MCAL_Layer/USART/usart.c: 191:             PIE1bits.RCIE = 0;
  3433   0024EE  9A9D               	bcf	157,5,c	;volatile
  3434   0024F0                     l5216:
  3435                           
  3436                           ;MCAL_Layer/USART/usart.c: 196:         if(1 == _eusart->usart_rx_cfg.usart_rx_9bit_enab
      +                          le){
  3437   0024F0  5001               	movf	Uart_ASYNC_RX_Init@_eusart^0,w,c
  3438   0024F2  6ED9               	movwf	fsr2l,c
  3439   0024F4  6ADA               	clrf	fsr2h,c
  3440   0024F6  0E06               	movlw	6
  3441   0024F8  26D9               	addwf	fsr2l,f,c
  3442   0024FA  A4DF               	btfss	indf2,2,c
  3443   0024FC  EF82  F012         	goto	u4381
  3444   002500  EF84  F012         	goto	u4380
  3445   002504                     u4381:
  3446   002504  EF87  F012         	goto	l5220
  3447   002508                     u4380:
  3448   002508                     
  3449                           ;MCAL_Layer/USART/usart.c: 197:             RCSTAbits.RX9 = 1;
  3450   002508  8CAB               	bsf	171,6,c	;volatile
  3451                           
  3452                           ;MCAL_Layer/USART/usart.c: 198:         }
  3453   00250A  EF96  F012         	goto	l1287
  3454   00250E                     l5220:
  3455   00250E  5001               	movf	Uart_ASYNC_RX_Init@_eusart^0,w,c
  3456   002510  6ED9               	movwf	fsr2l,c
  3457   002512  6ADA               	clrf	fsr2h,c
  3458   002514  0E06               	movlw	6
  3459   002516  26D9               	addwf	fsr2l,f,c
  3460   002518  B4DF               	btfsc	indf2,2,c
  3461   00251A  EF91  F012         	goto	u4391
  3462   00251E  EF93  F012         	goto	u4390
  3463   002522                     u4391:
  3464   002522  EF96  F012         	goto	l1283
  3465   002526                     u4390:
  3466   002526                     
  3467                           ;MCAL_Layer/USART/usart.c: 200:             RCSTAbits.RX9 = 0;
  3468   002526  9CAB               	bcf	171,6,c	;volatile
  3469                           
  3470                           ;MCAL_Layer/USART/usart.c: 201:         }
  3471   002528  EF96  F012         	goto	l1287
  3472   00252C                     l1283:
  3473   00252C                     l1287:
  3474   00252C  0012               	return		;funcret
  3475   00252E                     __end_of_Uart_ASYNC_RX_Init:
  3476                           	callstack 0
  3477                           
  3478 ;; *************** function _Uart_WriteStringBlocking *****************
  3479 ;; Defined at:
  3480 ;;		line 59 in file "MCAL_Layer/USART/usart.c"
  3481 ;; Parameters:    Size  Location     Type
  3482 ;;  data            1    0[COMRAM] PTR unsigned char 
  3483 ;;		 -> STR_6(14), STR_5(12), STR_4(14), 
  3484 ;; Auto vars:     Size  Location     Type
  3485 ;;  ret             1    0        enum E2841
  3486 ;; Return value:  Size  Location     Type
  3487 ;;                  1    wreg      enum E2841
  3488 ;; Registers used:
  3489 ;;		wreg, status,2, status,0, tblptrl, tblptrh, tblptru
  3490 ;; Tracked objects:
  3491 ;;		On entry : 0/0
  3492 ;;		On exit  : 0/0
  3493 ;;		Unchanged: 0/0
  3494 ;; Data sizes:     COMRAM   BANK0   BANK1   BANK2   BANK3   BANK4   BANK5   BANK6   BANK7   BANK8   BANK9  BANK10  BANK1
      +1  BANK12  BANK13  BANK14  BANK15
  3495 ;;      Params:         1       0       0       0       0       0       0       0       0       0       0       0       
      +0       0       0       0       0
  3496 ;;      Locals:         0       0       0       0       0       0       0       0       0       0       0       0       
      +0       0       0       0       0
  3497 ;;      Temps:          0       0       0       0       0       0       0       0       0       0       0       0       
      +0       0       0       0       0
  3498 ;;      Totals:         1       0       0       0       0       0       0       0       0       0       0       0       
      +0       0       0       0       0
  3499 ;;Total ram usage:        1 bytes
  3500 ;; Hardware stack levels used: 1
  3501 ;; Hardware stack levels required when called: 2
  3502 ;; This function calls:
  3503 ;;		Nothing
  3504 ;; This function is called by:
  3505 ;;		_main
  3506 ;; This function uses a non-reentrant model
  3507 ;;
  3508                           
  3509                           	psect	text10
  3510   00273E                     __ptext10:
  3511                           	callstack 0
  3512   00273E                     _Uart_WriteStringBlocking:
  3513                           	callstack 28
  3514   00273E                     
  3515                           ;MCAL_Layer/USART/usart.c: 62:     while(*data)
  3516   00273E  EFB1  F013         	goto	l5576
  3517   002742                     l1245:
  3518   002742  A2AC               	btfss	172,1,c	;volatile
  3519   002744  EFA6  F013         	goto	u4711
  3520   002748  EFA8  F013         	goto	u4710
  3521   00274C                     u4711:
  3522   00274C  EFA1  F013         	goto	l1245
  3523   002750                     u4710:
  3524   002750                     
  3525                           ;MCAL_Layer/USART/usart.c: 65:         TXREG = *data++;
  3526   002750  C001  FFF6         	movff	Uart_WriteStringBlocking@data,tblptrl
  3527   002754                     	if	1	;There is more than 1 active tblptr byte
  3528   002754  0E10               	movlw	high __smallconst
  3529   002756  6EF7               	movwf	tblptrh,c
  3530   002758                     	endif
  3531   002758                     	if	1	;Program memory is < 0x10000, tblptru is always zero
  3532   002758  6AF8               	clrf	tblptru,c
  3533   00275A                     	endif
  3534   00275A                     	if	0	;tblptru may be non-zero
  3535   00275A                     	endif
  3536   00275A  0008               	tblrd		*
  3537   00275C  CFF5 FFAD          	movff	tablat,4013	;volatile
  3538   002760  2A01               	incf	Uart_WriteStringBlocking@data^0,f,c
  3539   002762                     l5576:
  3540                           
  3541                           ;MCAL_Layer/USART/usart.c: 62:     while(*data)
  3542   002762  C001  FFF6         	movff	Uart_WriteStringBlocking@data,tblptrl
  3543   002766                     	if	1	;There is more than 1 active tblptr byte
  3544   002766  0E10               	movlw	high __smallconst
  3545   002768  6EF7               	movwf	tblptrh,c
  3546   00276A                     	endif
  3547   00276A                     	if	1	;Program memory is < 0x10000, tblptru is always zero
  3548   00276A  6AF8               	clrf	tblptru,c
  3549   00276C                     	endif
  3550   00276C                     	if	0	;tblptru may be non-zero
  3551   00276C                     	endif
  3552   00276C  0008               	tblrd		*
  3553   00276E  50F5               	movf	tablat,w,c
  3554   002770  0900               	iorlw	0
  3555   002772  A4D8               	btfss	status,2,c
  3556   002774  EFBE  F013         	goto	u4721
  3557   002778  EFC0  F013         	goto	u4720
  3558   00277C                     u4721:
  3559   00277C  EFA1  F013         	goto	l1245
  3560   002780                     u4720:
  3561   002780  0012               	return		;funcret
  3562   002782                     __end_of_Uart_WriteStringBlocking:
  3563                           	callstack 0
  3564                           
  3565 ;; *************** function _Uart_ReadByteNonBlocking *****************
  3566 ;; Defined at:
  3567 ;;		line 43 in file "MCAL_Layer/USART/usart.c"
  3568 ;; Parameters:    Size  Location     Type
  3569 ;;  data            1    0[COMRAM] PTR unsigned char 
  3570 ;;		 -> data(1), 
  3571 ;; Auto vars:     Size  Location     Type
  3572 ;;		None
  3573 ;; Return value:  Size  Location     Type
  3574 ;;                  1    wreg      enum E2841
  3575 ;; Registers used:
  3576 ;;		wreg, fsr2l, fsr2h, status,2
  3577 ;; Tracked objects:
  3578 ;;		On entry : 0/0
  3579 ;;		On exit  : 0/0
  3580 ;;		Unchanged: 0/0
  3581 ;; Data sizes:     COMRAM   BANK0   BANK1   BANK2   BANK3   BANK4   BANK5   BANK6   BANK7   BANK8   BANK9  BANK10  BANK1
      +1  BANK12  BANK13  BANK14  BANK15
  3582 ;;      Params:         1       0       0       0       0       0       0       0       0       0       0       0       
      +0       0       0       0       0
  3583 ;;      Locals:         0       0       0       0       0       0       0       0       0       0       0       0       
      +0       0       0       0       0
  3584 ;;      Temps:          0       0       0       0       0       0       0       0       0       0       0       0       
      +0       0       0       0       0
  3585 ;;      Totals:         1       0       0       0       0       0       0       0       0       0       0       0       
      +0       0       0       0       0
  3586 ;;Total ram usage:        1 bytes
  3587 ;; Hardware stack levels used: 1
  3588 ;; Hardware stack levels required when called: 2
  3589 ;; This function calls:
  3590 ;;		Nothing
  3591 ;; This function is called by:
  3592 ;;		_main
  3593 ;; This function uses a non-reentrant model
  3594 ;;
  3595                           
  3596                           	psect	text11
  3597   0027F6                     __ptext11:
  3598                           	callstack 0
  3599   0027F6                     _Uart_ReadByteNonBlocking:
  3600                           	callstack 28
  3601   0027F6                     
  3602                           ;MCAL_Layer/USART/usart.c: 43: Return_Status Uart_ReadByteNonBlocking(u8 *data);MCAL_Lay
      +                          er/USART/usart.c: 44: {;MCAL_Layer/USART/usart.c: 45:     if(PIR1bits.RCIF)
  3603   0027F6  AA9E               	btfss	158,5,c	;volatile
  3604   0027F8  EF00  F014         	goto	u4701
  3605   0027FC  EF02  F014         	goto	u4700
  3606   002800                     u4701:
  3607   002800  EF07  F014         	goto	l1234
  3608   002804                     u4700:
  3609   002804                     
  3610                           ;MCAL_Layer/USART/usart.c: 46:     {;MCAL_Layer/USART/usart.c: 47:         *data = RCREG
      +                          ;
  3611   002804  5001               	movf	Uart_ReadByteNonBlocking@data^0,w,c
  3612   002806  6ED9               	movwf	fsr2l,c
  3613   002808  6ADA               	clrf	fsr2h,c
  3614   00280A  CFAE FFDF          	movff	4014,indf2	;volatile
  3615   00280E                     l1234:
  3616   00280E  0012               	return		;funcret
  3617   002810                     __end_of_Uart_ReadByteNonBlocking:
  3618                           	callstack 0
  3619                           
  3620 ;; *************** function _LED_on *****************
  3621 ;; Defined at:
  3622 ;;		line 17 in file "ECU_Layer/LED/LED.c"
  3623 ;; Parameters:    Size  Location     Type
  3624 ;;  led             1    8[COMRAM] PTR struct .
  3625 ;;		 -> led2(2), led1(2), 
  3626 ;; Auto vars:     Size  Location     Type
  3627 ;;  led_obj         4    9[COMRAM] struct .
  3628 ;;  ret             1    0        enum E2841
  3629 ;; Return value:  Size  Location     Type
  3630 ;;                  1    wreg      enum E2841
  3631 ;; Registers used:
  3632 ;;		wreg, fsr2l, fsr2h, status,2, status,0, prodl, prodh, cstack
  3633 ;; Tracked objects:
  3634 ;;		On entry : 0/0
  3635 ;;		On exit  : 0/0
  3636 ;;		Unchanged: 0/0
  3637 ;; Data sizes:     COMRAM   BANK0   BANK1   BANK2   BANK3   BANK4   BANK5   BANK6   BANK7   BANK8   BANK9  BANK10  BANK1
      +1  BANK12  BANK13  BANK14  BANK15
  3638 ;;      Params:         1       0       0       0       0       0       0       0       0       0       0       0       
      +0       0       0       0       0
  3639 ;;      Locals:         4       0       0       0       0       0       0       0       0       0       0       0       
      +0       0       0       0       0
  3640 ;;      Temps:          0       0       0       0       0       0       0       0       0       0       0       0       
      +0       0       0       0       0
  3641 ;;      Totals:         5       0       0       0       0       0       0       0       0       0       0       0       
      +0       0       0       0       0
  3642 ;;Total ram usage:        5 bytes
  3643 ;; Hardware stack levels used: 1
  3644 ;; Hardware stack levels required when called: 3
  3645 ;; This function calls:
  3646 ;;		_gpio_write_pin_logic
  3647 ;; This function is called by:
  3648 ;;		_main
  3649 ;; This function uses a non-reentrant model
  3650 ;;
  3651                           
  3652                           	psect	text12
  3653   0025B0                     __ptext12:
  3654                           	callstack 0
  3655   0025B0                     _LED_on:
  3656                           	callstack 27
  3657   0025B0                     
  3658                           ;ECU_Layer/LED/LED.c: 19:     if(led!=((void*)0)){
  3659   0025B0  5009               	movf	LED_on@led^0,w,c
  3660   0025B2  B4D8               	btfsc	status,2,c
  3661   0025B4  EFDE  F012         	goto	u6531
  3662   0025B8  EFE0  F012         	goto	u6530
  3663   0025BC                     u6531:
  3664   0025BC  EF01  F013         	goto	l290
  3665   0025C0                     u6530:
  3666   0025C0                     
  3667                           ;ECU_Layer/LED/LED.c: 21:           pin_config_info led_obj={
  3668   0025C0  C0D6  F00A         	movff	LED_on@F2905,LED_on@led_obj
  3669   0025C4  C0D7  F00B         	movff	LED_on@F2905+1,LED_on@led_obj+1
  3670   0025C8  C0D8  F00C         	movff	LED_on@F2905+2,LED_on@led_obj+2
  3671   0025CC  C0D9  F00D         	movff	LED_on@F2905+3,LED_on@led_obj+3
  3672   0025D0  5009               	movf	LED_on@led^0,w,c
  3673   0025D2  6ED9               	movwf	fsr2l,c
  3674   0025D4  6ADA               	clrf	fsr2h,c
  3675   0025D6  30DF               	rrcf	223,w,c
  3676   0025D8  32E8               	rrcf	wreg,f,c
  3677   0025DA  32E8               	rrcf	wreg,f,c
  3678   0025DC  0B07               	andlw	7
  3679   0025DE  6E0A               	movwf	LED_on@led_obj^0,c
  3680   0025E0  5009               	movf	LED_on@led^0,w,c
  3681   0025E2  6ED9               	movwf	fsr2l,c
  3682   0025E4  6ADA               	clrf	fsr2h,c
  3683   0025E6  50DF               	movf	223,w,c
  3684   0025E8  0B07               	andlw	7
  3685   0025EA  6E0B               	movwf	(LED_on@led_obj+1)^0,c
  3686   0025EC  0E01               	movlw	1
  3687   0025EE  6E0C               	movwf	(LED_on@led_obj+2)^0,c
  3688   0025F0  0E00               	movlw	0
  3689   0025F2  6E0D               	movwf	(LED_on@led_obj+3)^0,c
  3690   0025F4                     
  3691                           ;ECU_Layer/LED/LED.c: 27:           gpio_write_pin_logic(&led_obj,led_obj.logic);
  3692   0025F4  0E0A               	movlw	low LED_on@led_obj
  3693   0025F6  6E01               	movwf	gpio_write_pin_logic@pin_config^0,c
  3694   0025F8  6A02               	clrf	(gpio_write_pin_logic@pin_config+1)^0,c
  3695   0025FA  C00C  F003         	movff	LED_on@led_obj+2,gpio_write_pin_logic@logic
  3696   0025FE  EC24  F010         	call	_gpio_write_pin_logic	;wreg free
  3697   002602                     l290:
  3698   002602  0012               	return		;funcret
  3699   002604                     __end_of_LED_on:
  3700                           	callstack 0
  3701                           
  3702 ;; *************** function _LED_off *****************
  3703 ;; Defined at:
  3704 ;;		line 32 in file "ECU_Layer/LED/LED.c"
  3705 ;; Parameters:    Size  Location     Type
  3706 ;;  led             1    8[COMRAM] PTR struct .
  3707 ;;		 -> led2(2), led1(2), 
  3708 ;; Auto vars:     Size  Location     Type
  3709 ;;  led_obj         4    9[COMRAM] struct .
  3710 ;;  ret             1    0        enum E2841
  3711 ;; Return value:  Size  Location     Type
  3712 ;;                  1    wreg      enum E2841
  3713 ;; Registers used:
  3714 ;;		wreg, fsr2l, fsr2h, status,2, status,0, prodl, prodh, cstack
  3715 ;; Tracked objects:
  3716 ;;		On entry : 0/0
  3717 ;;		On exit  : 0/0
  3718 ;;		Unchanged: 0/0
  3719 ;; Data sizes:     COMRAM   BANK0   BANK1   BANK2   BANK3   BANK4   BANK5   BANK6   BANK7   BANK8   BANK9  BANK10  BANK1
      +1  BANK12  BANK13  BANK14  BANK15
  3720 ;;      Params:         1       0       0       0       0       0       0       0       0       0       0       0       
      +0       0       0       0       0
  3721 ;;      Locals:         4       0       0       0       0       0       0       0       0       0       0       0       
      +0       0       0       0       0
  3722 ;;      Temps:          0       0       0       0       0       0       0       0       0       0       0       0       
      +0       0       0       0       0
  3723 ;;      Totals:         5       0       0       0       0       0       0       0       0       0       0       0       
      +0       0       0       0       0
  3724 ;;Total ram usage:        5 bytes
  3725 ;; Hardware stack levels used: 1
  3726 ;; Hardware stack levels required when called: 3
  3727 ;; This function calls:
  3728 ;;		_gpio_write_pin_logic
  3729 ;; This function is called by:
  3730 ;;		_main
  3731 ;; This function uses a non-reentrant model
  3732 ;;
  3733                           
  3734                           	psect	text13
  3735   002604                     __ptext13:
  3736                           	callstack 0
  3737   002604                     _LED_off:
  3738                           	callstack 27
  3739   002604                     
  3740                           ;ECU_Layer/LED/LED.c: 34:     if(led!=((void*)0)){
  3741   002604  5009               	movf	LED_off@led^0,w,c
  3742   002606  B4D8               	btfsc	status,2,c
  3743   002608  EF08  F013         	goto	u6541
  3744   00260C  EF0A  F013         	goto	u6540
  3745   002610                     u6541:
  3746   002610  EF2B  F013         	goto	l296
  3747   002614                     u6540:
  3748   002614                     
  3749                           ;ECU_Layer/LED/LED.c: 36:           pin_config_info led_obj={
  3750   002614  C0D2  F00A         	movff	LED_off@F2910,LED_off@led_obj
  3751   002618  C0D3  F00B         	movff	LED_off@F2910+1,LED_off@led_obj+1
  3752   00261C  C0D4  F00C         	movff	LED_off@F2910+2,LED_off@led_obj+2
  3753   002620  C0D5  F00D         	movff	LED_off@F2910+3,LED_off@led_obj+3
  3754   002624  5009               	movf	LED_off@led^0,w,c
  3755   002626  6ED9               	movwf	fsr2l,c
  3756   002628  6ADA               	clrf	fsr2h,c
  3757   00262A  30DF               	rrcf	223,w,c
  3758   00262C  32E8               	rrcf	wreg,f,c
  3759   00262E  32E8               	rrcf	wreg,f,c
  3760   002630  0B07               	andlw	7
  3761   002632  6E0A               	movwf	LED_off@led_obj^0,c
  3762   002634  5009               	movf	LED_off@led^0,w,c
  3763   002636  6ED9               	movwf	fsr2l,c
  3764   002638  6ADA               	clrf	fsr2h,c
  3765   00263A  50DF               	movf	223,w,c
  3766   00263C  0B07               	andlw	7
  3767   00263E  6E0B               	movwf	(LED_off@led_obj+1)^0,c
  3768   002640  0E00               	movlw	0
  3769   002642  6E0C               	movwf	(LED_off@led_obj+2)^0,c
  3770   002644  0E00               	movlw	0
  3771   002646  6E0D               	movwf	(LED_off@led_obj+3)^0,c
  3772   002648                     
  3773                           ;ECU_Layer/LED/LED.c: 42:             gpio_write_pin_logic(&led_obj,led_obj.logic);
  3774   002648  0E0A               	movlw	low LED_off@led_obj
  3775   00264A  6E01               	movwf	gpio_write_pin_logic@pin_config^0,c
  3776   00264C  6A02               	clrf	(gpio_write_pin_logic@pin_config+1)^0,c
  3777   00264E  C00C  F003         	movff	LED_off@led_obj+2,gpio_write_pin_logic@logic
  3778   002652  EC24  F010         	call	_gpio_write_pin_logic	;wreg free
  3779   002656                     l296:
  3780   002656  0012               	return		;funcret
  3781   002658                     __end_of_LED_off:
  3782                           	callstack 0
  3783                           
  3784 ;; *************** function _gpio_write_pin_logic *****************
  3785 ;; Defined at:
  3786 ;;		line 42 in file "MCAL_Layer/GPIO/GPIO.c"
  3787 ;; Parameters:    Size  Location     Type
  3788 ;;  pin_config      2    0[COMRAM] PTR struct .
  3789 ;;		 -> LED_off@led_obj(4), LED_on@led_obj(4), lcd1$data(16), lcd1(24), 
  3790 ;;		 -> Microwave_motor$dc_motor_pin(8), Microwave_motor(8), keypad1$keypad_column(16), keypad1$keypad_row(16), 
  3791 ;;		 -> keypad1(32), BUZ_off@led_obj(4), BUZ_on@buz_obj(4), 
  3792 ;;  logic           1    2[COMRAM] enum E2816
  3793 ;; Auto vars:     Size  Location     Type
  3794 ;;  ret             1    0        enum E2841
  3795 ;; Return value:  Size  Location     Type
  3796 ;;                  1    wreg      enum E2841
  3797 ;; Registers used:
  3798 ;;		wreg, fsr2l, fsr2h, status,2, status,0, prodl, prodh
  3799 ;; Tracked objects:
  3800 ;;		On entry : 0/0
  3801 ;;		On exit  : 0/0
  3802 ;;		Unchanged: 0/0
  3803 ;; Data sizes:     COMRAM   BANK0   BANK1   BANK2   BANK3   BANK4   BANK5   BANK6   BANK7   BANK8   BANK9  BANK10  BANK1
      +1  BANK12  BANK13  BANK14  BANK15
  3804 ;;      Params:         3       0       0       0       0       0       0       0       0       0       0       0       
      +0       0       0       0       0
  3805 ;;      Locals:         0       0       0       0       0       0       0       0       0       0       0       0       
      +0       0       0       0       0
  3806 ;;      Temps:          5       0       0       0       0       0       0       0       0       0       0       0       
      +0       0       0       0       0
  3807 ;;      Totals:         8       0       0       0       0       0       0       0       0       0       0       0       
      +0       0       0       0       0
  3808 ;;Total ram usage:        8 bytes
  3809 ;; Hardware stack levels used: 1
  3810 ;; Hardware stack levels required when called: 2
  3811 ;; This function calls:
  3812 ;;		Nothing
  3813 ;; This function is called by:
  3814 ;;		_LED_on
  3815 ;;		_LED_off
  3816 ;;		_BUZ_on
  3817 ;;		_BUZ_off
  3818 ;;		_dc_motor_move_right
  3819 ;;		_dc_motor_move_left
  3820 ;;		_dc_motor_stop
  3821 ;;		_keypad_get_value
  3822 ;;		_lcd_4bit_send_command
  3823 ;;		_lcd_4bit_send_char_data
  3824 ;;		_lcd_8bit_send_command
  3825 ;;		_lcd_8bit_send_char_data
  3826 ;;		_lcd_4bit_send_4_bit
  3827 ;;		_lcd_4bit_send_enable_signal
  3828 ;;		_lcd_8bit_send_enable_signal
  3829 ;;		_ssd_WriteNumber
  3830 ;;		_gpio_pin_initialize
  3831 ;; This function uses a non-reentrant model
  3832 ;;
  3833                           
  3834                           	psect	text14
  3835   002048                     __ptext14:
  3836                           	callstack 0
  3837   002048                     _gpio_write_pin_logic:
  3838                           	callstack 27
  3839   002048                     
  3840                           ;MCAL_Layer/GPIO/GPIO.c: 44:     if(pin_config!=((void*)0)&&pin_config->pin<=PIN7_INDEX&
      +                          &pin_config->port<=PORTE_INDEX){
  3841   002048  5001               	movf	gpio_write_pin_logic@pin_config^0,w,c
  3842   00204A  1002               	iorwf	(gpio_write_pin_logic@pin_config+1)^0,w,c
  3843   00204C  B4D8               	btfsc	status,2,c
  3844   00204E  EF2B  F010         	goto	u6321
  3845   002052  EF2D  F010         	goto	u6320
  3846   002056                     u6321:
  3847   002056  EFB1  F010         	goto	l663
  3848   00205A                     u6320:
  3849   00205A  C001  FFD9         	movff	gpio_write_pin_logic@pin_config,fsr2l
  3850   00205E  C002  FFDA         	movff	gpio_write_pin_logic@pin_config+1,fsr2h
  3851   002062  0E08               	movlw	8
  3852   002064  60DF               	cpfslt	indf2,c
  3853   002066  EF37  F010         	goto	u6331
  3854   00206A  EF39  F010         	goto	u6330
  3855   00206E                     u6331:
  3856   00206E  EFB1  F010         	goto	l663
  3857   002072                     u6330:
  3858   002072  EE20 F001          	lfsr	2,1
  3859   002076  5001               	movf	gpio_write_pin_logic@pin_config^0,w,c
  3860   002078  26D9               	addwf	fsr2l,f,c
  3861   00207A  5002               	movf	(gpio_write_pin_logic@pin_config+1)^0,w,c
  3862   00207C  22DA               	addwfc	fsr2h,f,c
  3863   00207E  0E05               	movlw	5
  3864   002080  60DF               	cpfslt	indf2,c
  3865   002082  EF45  F010         	goto	u6341
  3866   002086  EF47  F010         	goto	u6340
  3867   00208A                     u6341:
  3868   00208A  EFB1  F010         	goto	l663
  3869   00208E                     u6340:
  3870   00208E                     
  3871                           ;MCAL_Layer/GPIO/GPIO.c: 46:         switch(logic){
  3872   00208E  EF9C  F010         	goto	l6832
  3873   002092                     l6826:
  3874                           
  3875                           ;MCAL_Layer/GPIO/GPIO.c: 48:                 *LAT_registers[pin_config->port]&=~(1<<pin_
      +                          config->pin);
  3876   002092  C001  FFD9         	movff	gpio_write_pin_logic@pin_config,fsr2l
  3877   002096  C002  FFDA         	movff	gpio_write_pin_logic@pin_config+1,fsr2h
  3878   00209A  50DF               	movf	indf2,w,c
  3879   00209C  6E04               	movwf	??_gpio_write_pin_logic^0,c
  3880   00209E  0E01               	movlw	1
  3881   0020A0  6E05               	movwf	(??_gpio_write_pin_logic+1)^0,c
  3882   0020A2  2A04               	incf	??_gpio_write_pin_logic^0,f,c
  3883   0020A4  EF56  F010         	goto	u6354
  3884   0020A8                     u6355:
  3885   0020A8  90D8               	bcf	status,0,c
  3886   0020AA  3605               	rlcf	(??_gpio_write_pin_logic+1)^0,f,c
  3887   0020AC                     u6354:
  3888   0020AC  2E04               	decfsz	??_gpio_write_pin_logic^0,f,c
  3889   0020AE  EF54  F010         	goto	u6355
  3890   0020B2  5005               	movf	(??_gpio_write_pin_logic+1)^0,w,c
  3891   0020B4  0AFF               	xorlw	255
  3892   0020B6  6E06               	movwf	(??_gpio_write_pin_logic+2)^0,c
  3893   0020B8  EE20 F001          	lfsr	2,1
  3894   0020BC  5001               	movf	gpio_write_pin_logic@pin_config^0,w,c
  3895   0020BE  26D9               	addwf	fsr2l,f,c
  3896   0020C0  5002               	movf	(gpio_write_pin_logic@pin_config+1)^0,w,c
  3897   0020C2  22DA               	addwfc	fsr2h,f,c
  3898   0020C4  50DF               	movf	indf2,w,c
  3899   0020C6  0D02               	mullw	2
  3900   0020C8  50F3               	movf	243,w,c
  3901   0020CA  0F8A               	addlw	low _LAT_registers
  3902   0020CC  6ED9               	movwf	fsr2l,c
  3903   0020CE  6ADA               	clrf	fsr2h,c
  3904   0020D0  CFDE F007          	movff	postinc2,??_gpio_write_pin_logic+3
  3905   0020D4  CFDD F008          	movff	postdec2,??_gpio_write_pin_logic+4
  3906   0020D8  C007  FFD9         	movff	??_gpio_write_pin_logic+3,fsr2l
  3907   0020DC  C008  FFDA         	movff	??_gpio_write_pin_logic+4,fsr2h
  3908   0020E0  5006               	movf	(??_gpio_write_pin_logic+2)^0,w,c
  3909   0020E2  16DF               	andwf	indf2,f,c
  3910                           
  3911                           ;MCAL_Layer/GPIO/GPIO.c: 49:                 break;
  3912   0020E4  EFB1  F010         	goto	l663
  3913   0020E8                     l6828:
  3914                           
  3915                           ;MCAL_Layer/GPIO/GPIO.c: 51:                 *LAT_registers[pin_config->port]|=(1<<pin_c
      +                          onfig->pin);
  3916   0020E8  C001  FFD9         	movff	gpio_write_pin_logic@pin_config,fsr2l
  3917   0020EC  C002  FFDA         	movff	gpio_write_pin_logic@pin_config+1,fsr2h
  3918   0020F0  50DF               	movf	indf2,w,c
  3919   0020F2  6E04               	movwf	??_gpio_write_pin_logic^0,c
  3920   0020F4  0E01               	movlw	1
  3921   0020F6  6E05               	movwf	(??_gpio_write_pin_logic+1)^0,c
  3922   0020F8  2A04               	incf	??_gpio_write_pin_logic^0,f,c
  3923   0020FA  EF81  F010         	goto	u6364
  3924   0020FE                     u6365:
  3925   0020FE  90D8               	bcf	status,0,c
  3926   002100  3605               	rlcf	(??_gpio_write_pin_logic+1)^0,f,c
  3927   002102                     u6364:
  3928   002102  2E04               	decfsz	??_gpio_write_pin_logic^0,f,c
  3929   002104  EF7F  F010         	goto	u6365
  3930   002108  EE20 F001          	lfsr	2,1
  3931   00210C  5001               	movf	gpio_write_pin_logic@pin_config^0,w,c
  3932   00210E  26D9               	addwf	fsr2l,f,c
  3933   002110  5002               	movf	(gpio_write_pin_logic@pin_config+1)^0,w,c
  3934   002112  22DA               	addwfc	fsr2h,f,c
  3935   002114  50DF               	movf	indf2,w,c
  3936   002116  0D02               	mullw	2
  3937   002118  50F3               	movf	243,w,c
  3938   00211A  0F8A               	addlw	low _LAT_registers
  3939   00211C  6ED9               	movwf	fsr2l,c
  3940   00211E  6ADA               	clrf	fsr2h,c
  3941   002120  CFDE F006          	movff	postinc2,??_gpio_write_pin_logic+2
  3942   002124  CFDD F007          	movff	postdec2,??_gpio_write_pin_logic+3
  3943   002128  C006  FFD9         	movff	??_gpio_write_pin_logic+2,fsr2l
  3944   00212C  C007  FFDA         	movff	??_gpio_write_pin_logic+3,fsr2h
  3945   002130  5005               	movf	(??_gpio_write_pin_logic+1)^0,w,c
  3946   002132  12DF               	iorwf	indf2,f,c
  3947                           
  3948                           ;MCAL_Layer/GPIO/GPIO.c: 52:                 break;
  3949   002134  EFB1  F010         	goto	l663
  3950   002138                     l6832:
  3951   002138  5003               	movf	gpio_write_pin_logic@logic^0,w,c
  3952   00213A  6E04               	movwf	??_gpio_write_pin_logic^0,c
  3953   00213C  6A05               	clrf	(??_gpio_write_pin_logic+1)^0,c
  3954                           
  3955                           ; Switch on 2 bytes has been partitioned into a top level switch of size 1, and 1 sub-sw
      +                          itches
  3956                           ; Switch size 1, requested type "simple"
  3957                           ; Number of cases is 1, Range of values is 0 to 0
  3958                           ; switch strategies available:
  3959                           ; Name         Instructions Cycles
  3960                           ; simple_byte            4     3 (average)
  3961                           ;	Chosen strategy is simple_byte
  3962   00213E  5005               	movf	(??_gpio_write_pin_logic+1)^0,w,c
  3963   002140  0A00               	xorlw	0	; case 0
  3964   002142  B4D8               	btfsc	status,2,c
  3965   002144  EFA6  F010         	goto	l7540
  3966   002148  EFB1  F010         	goto	l663
  3967   00214C                     l7540:
  3968                           
  3969                           ; Switch size 1, requested type "simple"
  3970                           ; Number of cases is 2, Range of values is 0 to 1
  3971                           ; switch strategies available:
  3972                           ; Name         Instructions Cycles
  3973                           ; simple_byte            7     4 (average)
  3974                           ;	Chosen strategy is simple_byte
  3975   00214C  5004               	movf	??_gpio_write_pin_logic^0,w,c
  3976   00214E  0A00               	xorlw	0	; case 0
  3977   002150  B4D8               	btfsc	status,2,c
  3978   002152  EF49  F010         	goto	l6826
  3979   002156  0A01               	xorlw	1	; case 1
  3980   002158  B4D8               	btfsc	status,2,c
  3981   00215A  EF74  F010         	goto	l6828
  3982   00215E  EFB1  F010         	goto	l663
  3983   002162                     l663:
  3984   002162  0012               	return		;funcret
  3985   002164                     __end_of_gpio_write_pin_logic:
  3986                           	callstack 0
  3987                           
  3988 ;; *************** function _LED_init *****************
  3989 ;; Defined at:
  3990 ;;		line 3 in file "ECU_Layer/LED/LED.c"
  3991 ;; Parameters:    Size  Location     Type
  3992 ;;  led             1    7[COMRAM] PTR struct .
  3993 ;;		 -> led2(2), led1(2), 
  3994 ;; Auto vars:     Size  Location     Type
  3995 ;;  led_obj         4    8[COMRAM] struct .
  3996 ;;  ret             1    0        enum E2841
  3997 ;; Return value:  Size  Location     Type
  3998 ;;                  1    wreg      enum E2841
  3999 ;; Registers used:
  4000 ;;		wreg, fsr2l, fsr2h, status,2, status,0, prodl, prodh, cstack
  4001 ;; Tracked objects:
  4002 ;;		On entry : 0/0
  4003 ;;		On exit  : 0/0
  4004 ;;		Unchanged: 0/0
  4005 ;; Data sizes:     COMRAM   BANK0   BANK1   BANK2   BANK3   BANK4   BANK5   BANK6   BANK7   BANK8   BANK9  BANK10  BANK1
      +1  BANK12  BANK13  BANK14  BANK15
  4006 ;;      Params:         1       0       0       0       0       0       0       0       0       0       0       0       
      +0       0       0       0       0
  4007 ;;      Locals:         4       0       0       0       0       0       0       0       0       0       0       0       
      +0       0       0       0       0
  4008 ;;      Temps:          0       0       0       0       0       0       0       0       0       0       0       0       
      +0       0       0       0       0
  4009 ;;      Totals:         5       0       0       0       0       0       0       0       0       0       0       0       
      +0       0       0       0       0
  4010 ;;Total ram usage:        5 bytes
  4011 ;; Hardware stack levels used: 1
  4012 ;; Hardware stack levels required when called: 3
  4013 ;; This function calls:
  4014 ;;		_gpio_set_pin_direction
  4015 ;; This function is called by:
  4016 ;;		_main
  4017 ;;		_ecu_layer_initialize
  4018 ;; This function uses a non-reentrant model
  4019 ;;
  4020                           
  4021                           	psect	text15
  4022   002658                     __ptext15:
  4023                           	callstack 0
  4024   002658                     _LED_init:
  4025                           	callstack 27
  4026   002658                     
  4027                           ;ECU_Layer/LED/LED.c: 5:     if(led!=((void*)0)){
  4028   002658  5008               	movf	LED_init@led^0,w,c
  4029   00265A  B4D8               	btfsc	status,2,c
  4030   00265C  EF32  F013         	goto	u6431
  4031   002660  EF34  F013         	goto	u6430
  4032   002664                     u6431:
  4033   002664  EF53  F013         	goto	l284
  4034   002668                     u6430:
  4035   002668                     
  4036                           ;ECU_Layer/LED/LED.c: 7:         pin_config_info led_obj={
  4037   002668  C0DA  F009         	movff	LED_init@F2900,LED_init@led_obj
  4038   00266C  C0DB  F00A         	movff	LED_init@F2900+1,LED_init@led_obj+1
  4039   002670  C0DC  F00B         	movff	LED_init@F2900+2,LED_init@led_obj+2
  4040   002674  C0DD  F00C         	movff	LED_init@F2900+3,LED_init@led_obj+3
  4041   002678  5008               	movf	LED_init@led^0,w,c
  4042   00267A  6ED9               	movwf	fsr2l,c
  4043   00267C  6ADA               	clrf	fsr2h,c
  4044   00267E  30DF               	rrcf	223,w,c
  4045   002680  32E8               	rrcf	wreg,f,c
  4046   002682  32E8               	rrcf	wreg,f,c
  4047   002684  0B07               	andlw	7
  4048   002686  6E09               	movwf	LED_init@led_obj^0,c
  4049   002688  5008               	movf	LED_init@led^0,w,c
  4050   00268A  6ED9               	movwf	fsr2l,c
  4051   00268C  6ADA               	clrf	fsr2h,c
  4052   00268E  50DF               	movf	223,w,c
  4053   002690  0B07               	andlw	7
  4054   002692  6E0A               	movwf	(LED_init@led_obj+1)^0,c
  4055   002694  0E00               	movlw	0
  4056   002696  6E0B               	movwf	(LED_init@led_obj+2)^0,c
  4057   002698  0E00               	movlw	0
  4058   00269A  6E0C               	movwf	(LED_init@led_obj+3)^0,c
  4059   00269C                     
  4060                           ;ECU_Layer/LED/LED.c: 13:         gpio_set_pin_direction(&led_obj);
  4061   00269C  0E09               	movlw	low LED_init@led_obj
  4062   00269E  6E01               	movwf	gpio_set_pin_direction@pin_config^0,c
  4063   0026A0  6A02               	clrf	(gpio_set_pin_direction@pin_config+1)^0,c
  4064   0026A2  EC8E  F00F         	call	_gpio_set_pin_direction	;wreg free
  4065   0026A6                     l284:
  4066   0026A6  0012               	return		;funcret
  4067   0026A8                     __end_of_LED_init:
  4068                           	callstack 0
  4069                           
  4070 ;; *************** function _gpio_set_pin_direction *****************
  4071 ;; Defined at:
  4072 ;;		line 10 in file "MCAL_Layer/GPIO/GPIO.c"
  4073 ;; Parameters:    Size  Location     Type
  4074 ;;  pin_config      2    0[COMRAM] PTR struct .
  4075 ;;		 -> LED_init@led_obj(4), weight_sensor(6), door_sensor(6), start_btn(6), 
  4076 ;;		 -> lcd1$data(16), lcd1(24), Microwave_motor$dc_motor_pin(8), Microwave_motor(8), 
  4077 ;;		 -> keypad1$keypad_column(16), keypad1$keypad_row(16), keypad1(32), BUZ_init@buz_obj(4), 
  4078 ;; Auto vars:     Size  Location     Type
  4079 ;;  ret             1    0        enum E2841
  4080 ;; Return value:  Size  Location     Type
  4081 ;;                  1    wreg      enum E2841
  4082 ;; Registers used:
  4083 ;;		wreg, fsr2l, fsr2h, status,2, status,0, prodl, prodh
  4084 ;; Tracked objects:
  4085 ;;		On entry : 0/0
  4086 ;;		On exit  : 0/0
  4087 ;;		Unchanged: 0/0
  4088 ;; Data sizes:     COMRAM   BANK0   BANK1   BANK2   BANK3   BANK4   BANK5   BANK6   BANK7   BANK8   BANK9  BANK10  BANK1
      +1  BANK12  BANK13  BANK14  BANK15
  4089 ;;      Params:         2       0       0       0       0       0       0       0       0       0       0       0       
      +0       0       0       0       0
  4090 ;;      Locals:         0       0       0       0       0       0       0       0       0       0       0       0       
      +0       0       0       0       0
  4091 ;;      Temps:          5       0       0       0       0       0       0       0       0       0       0       0       
      +0       0       0       0       0
  4092 ;;      Totals:         7       0       0       0       0       0       0       0       0       0       0       0       
      +0       0       0       0       0
  4093 ;;Total ram usage:        7 bytes
  4094 ;; Hardware stack levels used: 1
  4095 ;; Hardware stack levels required when called: 2
  4096 ;; This function calls:
  4097 ;;		Nothing
  4098 ;; This function is called by:
  4099 ;;		_LED_init
  4100 ;;		_btn_init
  4101 ;;		_BUZ_init
  4102 ;;		_gpio_pin_initialize
  4103 ;; This function uses a non-reentrant model
  4104 ;;
  4105                           
  4106                           	psect	text16
  4107   001F1C                     __ptext16:
  4108                           	callstack 0
  4109   001F1C                     _gpio_set_pin_direction:
  4110                           	callstack 27
  4111   001F1C                     
  4112                           ;MCAL_Layer/GPIO/GPIO.c: 12:     if(pin_config!=((void*)0)&&pin_config->pin<=PIN7_INDEX&
      +                          &pin_config->port<=PORTE_INDEX){
  4113   001F1C  5001               	movf	gpio_set_pin_direction@pin_config^0,w,c
  4114   001F1E  1002               	iorwf	(gpio_set_pin_direction@pin_config+1)^0,w,c
  4115   001F20  B4D8               	btfsc	status,2,c
  4116   001F22  EF95  F00F         	goto	u6271
  4117   001F26  EF97  F00F         	goto	u6270
  4118   001F2A                     u6271:
  4119   001F2A  EF23  F010         	goto	l651
  4120   001F2E                     u6270:
  4121   001F2E  C001  FFD9         	movff	gpio_set_pin_direction@pin_config,fsr2l
  4122   001F32  C002  FFDA         	movff	gpio_set_pin_direction@pin_config+1,fsr2h
  4123   001F36  0E08               	movlw	8
  4124   001F38  60DF               	cpfslt	indf2,c
  4125   001F3A  EFA1  F00F         	goto	u6281
  4126   001F3E  EFA3  F00F         	goto	u6280
  4127   001F42                     u6281:
  4128   001F42  EF23  F010         	goto	l651
  4129   001F46                     u6280:
  4130   001F46  EE20 F001          	lfsr	2,1
  4131   001F4A  5001               	movf	gpio_set_pin_direction@pin_config^0,w,c
  4132   001F4C  26D9               	addwf	fsr2l,f,c
  4133   001F4E  5002               	movf	(gpio_set_pin_direction@pin_config+1)^0,w,c
  4134   001F50  22DA               	addwfc	fsr2h,f,c
  4135   001F52  0E05               	movlw	5
  4136   001F54  60DF               	cpfslt	indf2,c
  4137   001F56  EFAF  F00F         	goto	u6291
  4138   001F5A  EFB1  F00F         	goto	u6290
  4139   001F5E                     u6291:
  4140   001F5E  EF23  F010         	goto	l651
  4141   001F62                     u6290:
  4142   001F62                     
  4143                           ;MCAL_Layer/GPIO/GPIO.c: 14:         switch(pin_config->direction){
  4144   001F62  EF08  F010         	goto	l6810
  4145   001F66                     l6802:
  4146                           
  4147                           ;MCAL_Layer/GPIO/GPIO.c: 16:                 *tris_registers[pin_config->port]&=~(1<<pin
      +                          _config->pin);
  4148   001F66  C001  FFD9         	movff	gpio_set_pin_direction@pin_config,fsr2l
  4149   001F6A  C002  FFDA         	movff	gpio_set_pin_direction@pin_config+1,fsr2h
  4150   001F6E  50DF               	movf	indf2,w,c
  4151   001F70  6E03               	movwf	??_gpio_set_pin_direction^0,c
  4152   001F72  0E01               	movlw	1
  4153   001F74  6E04               	movwf	(??_gpio_set_pin_direction+1)^0,c
  4154   001F76  2A03               	incf	??_gpio_set_pin_direction^0,f,c
  4155   001F78  EFC0  F00F         	goto	u6304
  4156   001F7C                     u6305:
  4157   001F7C  90D8               	bcf	status,0,c
  4158   001F7E  3604               	rlcf	(??_gpio_set_pin_direction+1)^0,f,c
  4159   001F80                     u6304:
  4160   001F80  2E03               	decfsz	??_gpio_set_pin_direction^0,f,c
  4161   001F82  EFBE  F00F         	goto	u6305
  4162   001F86  5004               	movf	(??_gpio_set_pin_direction+1)^0,w,c
  4163   001F88  0AFF               	xorlw	255
  4164   001F8A  6E05               	movwf	(??_gpio_set_pin_direction+2)^0,c
  4165   001F8C  EE20 F001          	lfsr	2,1
  4166   001F90  5001               	movf	gpio_set_pin_direction@pin_config^0,w,c
  4167   001F92  26D9               	addwf	fsr2l,f,c
  4168   001F94  5002               	movf	(gpio_set_pin_direction@pin_config+1)^0,w,c
  4169   001F96  22DA               	addwfc	fsr2h,f,c
  4170   001F98  50DF               	movf	indf2,w,c
  4171   001F9A  0D02               	mullw	2
  4172   001F9C  50F3               	movf	243,w,c
  4173   001F9E  0F94               	addlw	low _tris_registers
  4174   001FA0  6ED9               	movwf	fsr2l,c
  4175   001FA2  6ADA               	clrf	fsr2h,c
  4176   001FA4  CFDE F006          	movff	postinc2,??_gpio_set_pin_direction+3
  4177   001FA8  CFDD F007          	movff	postdec2,??_gpio_set_pin_direction+4
  4178   001FAC  C006  FFD9         	movff	??_gpio_set_pin_direction+3,fsr2l
  4179   001FB0  C007  FFDA         	movff	??_gpio_set_pin_direction+4,fsr2h
  4180   001FB4  5005               	movf	(??_gpio_set_pin_direction+2)^0,w,c
  4181   001FB6  16DF               	andwf	indf2,f,c
  4182                           
  4183                           ;MCAL_Layer/GPIO/GPIO.c: 17:                 break;
  4184   001FB8  EF23  F010         	goto	l651
  4185   001FBC                     l6804:
  4186                           
  4187                           ;MCAL_Layer/GPIO/GPIO.c: 19:                 *tris_registers[pin_config->port]|=(1<<pin_
      +                          config->pin);
  4188   001FBC  C001  FFD9         	movff	gpio_set_pin_direction@pin_config,fsr2l
  4189   001FC0  C002  FFDA         	movff	gpio_set_pin_direction@pin_config+1,fsr2h
  4190   001FC4  50DF               	movf	indf2,w,c
  4191   001FC6  6E03               	movwf	??_gpio_set_pin_direction^0,c
  4192   001FC8  0E01               	movlw	1
  4193   001FCA  6E04               	movwf	(??_gpio_set_pin_direction+1)^0,c
  4194   001FCC  2A03               	incf	??_gpio_set_pin_direction^0,f,c
  4195   001FCE  EFEB  F00F         	goto	u6314
  4196   001FD2                     u6315:
  4197   001FD2  90D8               	bcf	status,0,c
  4198   001FD4  3604               	rlcf	(??_gpio_set_pin_direction+1)^0,f,c
  4199   001FD6                     u6314:
  4200   001FD6  2E03               	decfsz	??_gpio_set_pin_direction^0,f,c
  4201   001FD8  EFE9  F00F         	goto	u6315
  4202   001FDC  EE20 F001          	lfsr	2,1
  4203   001FE0  5001               	movf	gpio_set_pin_direction@pin_config^0,w,c
  4204   001FE2  26D9               	addwf	fsr2l,f,c
  4205   001FE4  5002               	movf	(gpio_set_pin_direction@pin_config+1)^0,w,c
  4206   001FE6  22DA               	addwfc	fsr2h,f,c
  4207   001FE8  50DF               	movf	indf2,w,c
  4208   001FEA  0D02               	mullw	2
  4209   001FEC  50F3               	movf	243,w,c
  4210   001FEE  0F94               	addlw	low _tris_registers
  4211   001FF0  6ED9               	movwf	fsr2l,c
  4212   001FF2  6ADA               	clrf	fsr2h,c
  4213   001FF4  CFDE F005          	movff	postinc2,??_gpio_set_pin_direction+2
  4214   001FF8  CFDD F006          	movff	postdec2,??_gpio_set_pin_direction+3
  4215   001FFC  C005  FFD9         	movff	??_gpio_set_pin_direction+2,fsr2l
  4216   002000  C006  FFDA         	movff	??_gpio_set_pin_direction+3,fsr2h
  4217   002004  5004               	movf	(??_gpio_set_pin_direction+1)^0,w,c
  4218   002006  12DF               	iorwf	indf2,f,c
  4219                           
  4220                           ;MCAL_Layer/GPIO/GPIO.c: 20:                 break;
  4221   002008  EF23  F010         	goto	l651
  4222   00200C                     l6806:
  4223   00200C  EF23  F010         	goto	l651
  4224   002010                     l6810:
  4225   002010  EE20 F003          	lfsr	2,3
  4226   002014  5001               	movf	gpio_set_pin_direction@pin_config^0,w,c
  4227   002016  26D9               	addwf	fsr2l,f,c
  4228   002018  5002               	movf	(gpio_set_pin_direction@pin_config+1)^0,w,c
  4229   00201A  22DA               	addwfc	fsr2h,f,c
  4230   00201C  50DF               	movf	indf2,w,c
  4231   00201E  6E03               	movwf	??_gpio_set_pin_direction^0,c
  4232   002020  6A04               	clrf	(??_gpio_set_pin_direction+1)^0,c
  4233                           
  4234                           ; Switch on 2 bytes has been partitioned into a top level switch of size 1, and 1 sub-sw
      +                          itches
  4235                           ; Switch size 1, requested type "simple"
  4236                           ; Number of cases is 1, Range of values is 0 to 0
  4237                           ; switch strategies available:
  4238                           ; Name         Instructions Cycles
  4239                           ; simple_byte            4     3 (average)
  4240                           ;	Chosen strategy is simple_byte
  4241   002022  5004               	movf	(??_gpio_set_pin_direction+1)^0,w,c
  4242   002024  0A00               	xorlw	0	; case 0
  4243   002026  B4D8               	btfsc	status,2,c
  4244   002028  EF18  F010         	goto	l7542
  4245   00202C  EF06  F010         	goto	l6806
  4246   002030                     l7542:
  4247                           
  4248                           ; Switch size 1, requested type "simple"
  4249                           ; Number of cases is 2, Range of values is 0 to 1
  4250                           ; switch strategies available:
  4251                           ; Name         Instructions Cycles
  4252                           ; simple_byte            7     4 (average)
  4253                           ;	Chosen strategy is simple_byte
  4254   002030  5003               	movf	??_gpio_set_pin_direction^0,w,c
  4255   002032  0A00               	xorlw	0	; case 0
  4256   002034  B4D8               	btfsc	status,2,c
  4257   002036  EFB3  F00F         	goto	l6802
  4258   00203A  0A01               	xorlw	1	; case 1
  4259   00203C  B4D8               	btfsc	status,2,c
  4260   00203E  EFDE  F00F         	goto	l6804
  4261   002042  EF06  F010         	goto	l6806
  4262   002046                     l651:
  4263   002046  0012               	return		;funcret
  4264   002048                     __end_of_gpio_set_pin_direction:
  4265                           	callstack 0
  4266                           
  4267 ;; *************** function _manage *****************
  4268 ;; Defined at:
  4269 ;;		line 46 in file "interrupt_manager.c"
  4270 ;; Parameters:    Size  Location     Type
  4271 ;;		None
  4272 ;; Auto vars:     Size  Location     Type
  4273 ;;		None
  4274 ;; Return value:  Size  Location     Type
  4275 ;;                  1    wreg      void 
  4276 ;; Registers used:
  4277 ;;		wreg, status,2, cstack
  4278 ;; Tracked objects:
  4279 ;;		On entry : 0/0
  4280 ;;		On exit  : 0/0
  4281 ;;		Unchanged: 0/0
  4282 ;; Data sizes:     COMRAM   BANK0   BANK1   BANK2   BANK3   BANK4   BANK5   BANK6   BANK7   BANK8   BANK9  BANK10  BANK1
      +1  BANK12  BANK13  BANK14  BANK15
  4283 ;;      Params:         0       0       0       0       0       0       0       0       0       0       0       0       
      +0       0       0       0       0
  4284 ;;      Locals:         0       0       0       0       0       0       0       0       0       0       0       0       
      +0       0       0       0       0
  4285 ;;      Temps:          0       0       0       0       0       0       0       0       0       0       0       0       
      +0       0       0       0       0
  4286 ;;      Totals:         0       0       0       0       0       0       0       0       0       0       0       0       
      +0       0       0       0       0
  4287 ;;Total ram usage:        0 bytes
  4288 ;; Hardware stack levels used: 1
  4289 ;; Hardware stack levels required when called: 1
  4290 ;; This function calls:
  4291 ;;		_INT0_ISR
  4292 ;;		_INT1_ISR
  4293 ;;		_INT2_ISR
  4294 ;;		_Timer0_ISR
  4295 ;;		_Timer1_ISR
  4296 ;;		_Timer2_ISR
  4297 ;;		_adc_ISR
  4298 ;;		_timer3_ISR
  4299 ;; This function is called by:
  4300 ;;		Interrupt level 2
  4301 ;; This function uses a non-reentrant model
  4302 ;;
  4303                           
  4304                           	psect	intcode
  4305   000008                     __pintcode:
  4306                           	callstack 0
  4307   000008                     _manage:
  4308                           	callstack 25
  4309                           
  4310                           ;incstack = 0
  4311   000008  827E               	bsf	int$flags,1,c	;set compiler interrupt flag (level 2)
  4312   00000A  ED35  F011         	call	int_func,f	;refresh shadow registers
  4313                           
  4314                           	psect	intcode_body
  4315   00226A                     __pintcode_body:
  4316                           	callstack 25
  4317   00226A                     int_func:
  4318                           	callstack 25
  4319   00226A  0006               	pop		; remove dummy address from shadow register refresh
  4320   00226C                     
  4321                           ;interrupt_manager.c: 48:     if((1==INTCONbits.INT0IF)&&(1==INTCONbits.INT0IE))
  4322   00226C  A2F2               	btfss	242,1,c	;volatile
  4323   00226E  EF3B  F011         	goto	i2u559_41
  4324   002272  EF3D  F011         	goto	i2u559_40
  4325   002276                     i2u559_41:
  4326   002276  EF46  F011         	goto	i2l6320
  4327   00227A                     i2u559_40:
  4328   00227A  A8F2               	btfss	242,4,c	;volatile
  4329   00227C  EF42  F011         	goto	i2u560_41
  4330   002280  EF44  F011         	goto	i2u560_40
  4331   002284                     i2u560_41:
  4332   002284  EF46  F011         	goto	i2l6320
  4333   002288                     i2u560_40:
  4334   002288                     
  4335                           ;interrupt_manager.c: 49:     {;interrupt_manager.c: 50:         INT0_ISR();
  4336   002288  EC27  F014         	call	_INT0_ISR	;wreg free
  4337   00228C                     i2l6320:
  4338                           
  4339                           ;interrupt_manager.c: 52:     if((1==INTCON3bits.INT1IF)&&(1==INTCON3bits.INT1IE))
  4340   00228C  A0F0               	btfss	240,0,c	;volatile
  4341   00228E  EF4B  F011         	goto	i2u561_41
  4342   002292  EF4D  F011         	goto	i2u561_40
  4343   002296                     i2u561_41:
  4344   002296  EF56  F011         	goto	i2l6326
  4345   00229A                     i2u561_40:
  4346   00229A  A6F0               	btfss	240,3,c	;volatile
  4347   00229C  EF52  F011         	goto	i2u562_41
  4348   0022A0  EF54  F011         	goto	i2u562_40
  4349   0022A4                     i2u562_41:
  4350   0022A4  EF56  F011         	goto	i2l6326
  4351   0022A8                     i2u562_40:
  4352   0022A8                     
  4353                           ;interrupt_manager.c: 53:     {;interrupt_manager.c: 54:         INT1_ISR();
  4354   0022A8  EC25  F014         	call	_INT1_ISR	;wreg free
  4355   0022AC                     i2l6326:
  4356                           
  4357                           ;interrupt_manager.c: 56:     if((1==INTCON3bits.INT2IF)&&(1==INTCON3bits.INT2IE))
  4358   0022AC  A2F0               	btfss	240,1,c	;volatile
  4359   0022AE  EF5B  F011         	goto	i2u563_41
  4360   0022B2  EF5D  F011         	goto	i2u563_40
  4361   0022B6                     i2u563_41:
  4362   0022B6  EF66  F011         	goto	i2l6332
  4363   0022BA                     i2u563_40:
  4364   0022BA  A8F0               	btfss	240,4,c	;volatile
  4365   0022BC  EF62  F011         	goto	i2u564_41
  4366   0022C0  EF64  F011         	goto	i2u564_40
  4367   0022C4                     i2u564_41:
  4368   0022C4  EF66  F011         	goto	i2l6332
  4369   0022C8                     i2u564_40:
  4370   0022C8                     
  4371                           ;interrupt_manager.c: 57:     {;interrupt_manager.c: 58:         INT2_ISR();
  4372   0022C8  EC23  F014         	call	_INT2_ISR	;wreg free
  4373   0022CC                     i2l6332:
  4374                           
  4375                           ;interrupt_manager.c: 66:     if((1==INTCONbits.TMR0IF)&&(1==INTCONbits.TMR0IE))
  4376   0022CC  A4F2               	btfss	242,2,c	;volatile
  4377   0022CE  EF6B  F011         	goto	i2u565_41
  4378   0022D2  EF6D  F011         	goto	i2u565_40
  4379   0022D6                     i2u565_41:
  4380   0022D6  EF76  F011         	goto	i2l6338
  4381   0022DA                     i2u565_40:
  4382   0022DA  AAF2               	btfss	242,5,c	;volatile
  4383   0022DC  EF72  F011         	goto	i2u566_41
  4384   0022E0  EF74  F011         	goto	i2u566_40
  4385   0022E4                     i2u566_41:
  4386   0022E4  EF76  F011         	goto	i2l6338
  4387   0022E8                     i2u566_40:
  4388   0022E8                     
  4389                           ;interrupt_manager.c: 67:     {;interrupt_manager.c: 68:         Timer0_ISR();
  4390   0022E8  EC14  F014         	call	_Timer0_ISR	;wreg free
  4391   0022EC                     i2l6338:
  4392                           
  4393                           ;interrupt_manager.c: 70:     if((1==PIR1bits.TMR1IF)&&(1==PIE1bits.TMR1IE))
  4394   0022EC  A09E               	btfss	158,0,c	;volatile
  4395   0022EE  EF7B  F011         	goto	i2u567_41
  4396   0022F2  EF7D  F011         	goto	i2u567_40
  4397   0022F6                     i2u567_41:
  4398   0022F6  EF86  F011         	goto	i2l6344
  4399   0022FA                     i2u567_40:
  4400   0022FA  A09D               	btfss	157,0,c	;volatile
  4401   0022FC  EF82  F011         	goto	i2u568_41
  4402   002300  EF84  F011         	goto	i2u568_40
  4403   002304                     i2u568_41:
  4404   002304  EF86  F011         	goto	i2l6344
  4405   002308                     i2u568_40:
  4406   002308                     
  4407                           ;interrupt_manager.c: 71:     {;interrupt_manager.c: 72:         Timer1_ISR();
  4408   002308  EC0E  F014         	call	_Timer1_ISR	;wreg free
  4409   00230C                     i2l6344:
  4410                           
  4411                           ;interrupt_manager.c: 74:     if((1==PIR1bits.TMR2IF)&&(1==PIE1bits.TMR2IE))
  4412   00230C  A29E               	btfss	158,1,c	;volatile
  4413   00230E  EF8B  F011         	goto	i2u569_41
  4414   002312  EF8D  F011         	goto	i2u569_40
  4415   002316                     i2u569_41:
  4416   002316  EF96  F011         	goto	i2l6350
  4417   00231A                     i2u569_40:
  4418   00231A  A29D               	btfss	157,1,c	;volatile
  4419   00231C  EF92  F011         	goto	i2u570_41
  4420   002320  EF94  F011         	goto	i2u570_40
  4421   002324                     i2u570_41:
  4422   002324  EF96  F011         	goto	i2l6350
  4423   002328                     i2u570_40:
  4424   002328                     
  4425                           ;interrupt_manager.c: 75:     {;interrupt_manager.c: 76:         Timer2_ISR();
  4426   002328  EC1A  F014         	call	_Timer2_ISR	;wreg free
  4427   00232C                     i2l6350:
  4428                           
  4429                           ;interrupt_manager.c: 78:     if((1==PIR2bits.TMR3IF)&&(1==PIE2bits.TMR3IE))
  4430   00232C  A2A1               	btfss	161,1,c	;volatile
  4431   00232E  EF9B  F011         	goto	i2u571_41
  4432   002332  EF9D  F011         	goto	i2u571_40
  4433   002336                     i2u571_41:
  4434   002336  EFA6  F011         	goto	i2l6356
  4435   00233A                     i2u571_40:
  4436   00233A  A2A0               	btfss	160,1,c	;volatile
  4437   00233C  EFA2  F011         	goto	i2u572_41
  4438   002340  EFA4  F011         	goto	i2u572_40
  4439   002344                     i2u572_41:
  4440   002344  EFA6  F011         	goto	i2l6356
  4441   002348                     i2u572_40:
  4442   002348                     
  4443                           ;interrupt_manager.c: 79:     {;interrupt_manager.c: 80:         timer3_ISR();
  4444   002348  EC08  F014         	call	_timer3_ISR	;wreg free
  4445   00234C                     i2l6356:
  4446                           
  4447                           ;interrupt_manager.c: 82:     if((1==PIR1bits.ADIF)&&(1==PIE1bits.ADIE))
  4448   00234C  AC9E               	btfss	158,6,c	;volatile
  4449   00234E  EFAB  F011         	goto	i2u573_41
  4450   002352  EFAD  F011         	goto	i2u573_40
  4451   002356                     i2u573_41:
  4452   002356  EFB6  F011         	goto	i2l948
  4453   00235A                     i2u573_40:
  4454   00235A  AC9D               	btfss	157,6,c	;volatile
  4455   00235C  EFB2  F011         	goto	i2u574_41
  4456   002360  EFB4  F011         	goto	i2u574_40
  4457   002364                     i2u574_41:
  4458   002364  EFB6  F011         	goto	i2l948
  4459   002368                     i2u574_40:
  4460   002368                     
  4461                           ;interrupt_manager.c: 83:     {;interrupt_manager.c: 84:         adc_ISR();
  4462   002368  EC21  F014         	call	_adc_ISR	;wreg free
  4463   00236C                     i2l948:
  4464   00236C  927E               	bcf	int$flags,1,c	;clear compiler interrupt flag (level 2)
  4465   00236E  0011               	retfie		f
  4466   002370                     __end_of_manage:
  4467                           	callstack 0
  4468                           
  4469 ;; *************** function _timer3_ISR *****************
  4470 ;; Defined at:
  4471 ;;		line 91 in file "MCAL_Layer/Timers/Timer3.c"
  4472 ;; Parameters:    Size  Location     Type
  4473 ;;		None
  4474 ;; Auto vars:     Size  Location     Type
  4475 ;;		None
  4476 ;; Return value:  Size  Location     Type
  4477 ;;                  1    wreg      void 
  4478 ;; Registers used:
  4479 ;;		wreg, status,2
  4480 ;; Tracked objects:
  4481 ;;		On entry : 0/0
  4482 ;;		On exit  : 0/0
  4483 ;;		Unchanged: 0/0
  4484 ;; Data sizes:     COMRAM   BANK0   BANK1   BANK2   BANK3   BANK4   BANK5   BANK6   BANK7   BANK8   BANK9  BANK10  BANK1
      +1  BANK12  BANK13  BANK14  BANK15
  4485 ;;      Params:         0       0       0       0       0       0       0       0       0       0       0       0       
      +0       0       0       0       0
  4486 ;;      Locals:         0       0       0       0       0       0       0       0       0       0       0       0       
      +0       0       0       0       0
  4487 ;;      Temps:          0       0       0       0       0       0       0       0       0       0       0       0       
      +0       0       0       0       0
  4488 ;;      Totals:         0       0       0       0       0       0       0       0       0       0       0       0       
      +0       0       0       0       0
  4489 ;;Total ram usage:        0 bytes
  4490 ;; Hardware stack levels used: 1
  4491 ;; This function calls:
  4492 ;;		Nothing
  4493 ;; This function is called by:
  4494 ;;		_manage
  4495 ;; This function uses a non-reentrant model
  4496 ;;
  4497                           
  4498                           	psect	text18
  4499   002810                     __ptext18:
  4500                           	callstack 0
  4501   002810                     _timer3_ISR:
  4502                           	callstack 25
  4503   002810                     
  4504                           ;MCAL_Layer/Timers/Timer3.c: 93:     PIR2bits.TMR3IF=0;
  4505   002810  92A1               	bcf	161,1,c	;volatile
  4506   002812                     
  4507                           ;MCAL_Layer/Timers/Timer3.c: 94:     TMR3H=preload_value>>8;
  4508   002812  5057               	movf	(_preload_value+1)^0,w,c
  4509   002814  6EB3               	movwf	179,c	;volatile
  4510   002816                     
  4511                           ;MCAL_Layer/Timers/Timer3.c: 95:     TMR3L=(u8)preload_value;
  4512   002816  C056  FFB2         	movff	_preload_value,4018	;volatile
  4513   00281A  0012               	return		;funcret
  4514   00281C                     __end_of_timer3_ISR:
  4515                           	callstack 0
  4516                           
  4517 ;; *************** function _adc_ISR *****************
  4518 ;; Defined at:
  4519 ;;		line 159 in file "MCAL_Layer/ADC/adc.c"
  4520 ;; Parameters:    Size  Location     Type
  4521 ;;		None
  4522 ;; Auto vars:     Size  Location     Type
  4523 ;;		None
  4524 ;; Return value:  Size  Location     Type
  4525 ;;                  1    wreg      void 
  4526 ;; Registers used:
  4527 ;;		None
  4528 ;; Tracked objects:
  4529 ;;		On entry : 0/0
  4530 ;;		On exit  : 0/0
  4531 ;;		Unchanged: 0/0
  4532 ;; Data sizes:     COMRAM   BANK0   BANK1   BANK2   BANK3   BANK4   BANK5   BANK6   BANK7   BANK8   BANK9  BANK10  BANK1
      +1  BANK12  BANK13  BANK14  BANK15
  4533 ;;      Params:         0       0       0       0       0       0       0       0       0       0       0       0       
      +0       0       0       0       0
  4534 ;;      Locals:         0       0       0       0       0       0       0       0       0       0       0       0       
      +0       0       0       0       0
  4535 ;;      Temps:          0       0       0       0       0       0       0       0       0       0       0       0       
      +0       0       0       0       0
  4536 ;;      Totals:         0       0       0       0       0       0       0       0       0       0       0       0       
      +0       0       0       0       0
  4537 ;;Total ram usage:        0 bytes
  4538 ;; Hardware stack levels used: 1
  4539 ;; This function calls:
  4540 ;;		Nothing
  4541 ;; This function is called by:
  4542 ;;		_manage
  4543 ;; This function uses a non-reentrant model
  4544 ;;
  4545                           
  4546                           	psect	text19
  4547   002842                     __ptext19:
  4548                           	callstack 0
  4549   002842                     _adc_ISR:
  4550                           	callstack 25
  4551   002842                     
  4552                           ;MCAL_Layer/ADC/adc.c: 161:     PIR1bits.ADIF=0;
  4553   002842  9C9E               	bcf	158,6,c	;volatile
  4554   002844  0012               	return		;funcret
  4555   002846                     __end_of_adc_ISR:
  4556                           	callstack 0
  4557                           
  4558 ;; *************** function _Timer2_ISR *****************
  4559 ;; Defined at:
  4560 ;;		line 67 in file "MCAL_Layer/Timers/Timer2.c"
  4561 ;; Parameters:    Size  Location     Type
  4562 ;;		None
  4563 ;; Auto vars:     Size  Location     Type
  4564 ;;		None
  4565 ;; Return value:  Size  Location     Type
  4566 ;;                  1    wreg      void 
  4567 ;; Registers used:
  4568 ;;		None
  4569 ;; Tracked objects:
  4570 ;;		On entry : 0/0
  4571 ;;		On exit  : 0/0
  4572 ;;		Unchanged: 0/0
  4573 ;; Data sizes:     COMRAM   BANK0   BANK1   BANK2   BANK3   BANK4   BANK5   BANK6   BANK7   BANK8   BANK9  BANK10  BANK1
      +1  BANK12  BANK13  BANK14  BANK15
  4574 ;;      Params:         0       0       0       0       0       0       0       0       0       0       0       0       
      +0       0       0       0       0
  4575 ;;      Locals:         0       0       0       0       0       0       0       0       0       0       0       0       
      +0       0       0       0       0
  4576 ;;      Temps:          0       0       0       0       0       0       0       0       0       0       0       0       
      +0       0       0       0       0
  4577 ;;      Totals:         0       0       0       0       0       0       0       0       0       0       0       0       
      +0       0       0       0       0
  4578 ;;Total ram usage:        0 bytes
  4579 ;; Hardware stack levels used: 1
  4580 ;; This function calls:
  4581 ;;		Nothing
  4582 ;; This function is called by:
  4583 ;;		_manage
  4584 ;; This function uses a non-reentrant model
  4585 ;;
  4586                           
  4587                           	psect	text20
  4588   002834                     __ptext20:
  4589                           	callstack 0
  4590   002834                     _Timer2_ISR:
  4591                           	callstack 25
  4592   002834                     
  4593                           ;MCAL_Layer/Timers/Timer2.c: 68:     PIR1bits.TMR2IF=0;
  4594   002834  929E               	bcf	158,1,c	;volatile
  4595                           
  4596                           ;MCAL_Layer/Timers/Timer2.c: 69:     TMR2=Timer2_preload;
  4597   002836  C076  FFCC         	movff	_Timer2_preload,4044	;volatile
  4598   00283A  0012               	return		;funcret
  4599   00283C                     __end_of_Timer2_ISR:
  4600                           	callstack 0
  4601                           
  4602 ;; *************** function _Timer1_ISR *****************
  4603 ;; Defined at:
  4604 ;;		line 100 in file "MCAL_Layer/Timers/Timer1.c"
  4605 ;; Parameters:    Size  Location     Type
  4606 ;;		None
  4607 ;; Auto vars:     Size  Location     Type
  4608 ;;		None
  4609 ;; Return value:  Size  Location     Type
  4610 ;;                  1    wreg      void 
  4611 ;; Registers used:
  4612 ;;		wreg, status,2
  4613 ;; Tracked objects:
  4614 ;;		On entry : 0/0
  4615 ;;		On exit  : 0/0
  4616 ;;		Unchanged: 0/0
  4617 ;; Data sizes:     COMRAM   BANK0   BANK1   BANK2   BANK3   BANK4   BANK5   BANK6   BANK7   BANK8   BANK9  BANK10  BANK1
      +1  BANK12  BANK13  BANK14  BANK15
  4618 ;;      Params:         0       0       0       0       0       0       0       0       0       0       0       0       
      +0       0       0       0       0
  4619 ;;      Locals:         0       0       0       0       0       0       0       0       0       0       0       0       
      +0       0       0       0       0
  4620 ;;      Temps:          0       0       0       0       0       0       0       0       0       0       0       0       
      +0       0       0       0       0
  4621 ;;      Totals:         0       0       0       0       0       0       0       0       0       0       0       0       
      +0       0       0       0       0
  4622 ;;Total ram usage:        0 bytes
  4623 ;; Hardware stack levels used: 1
  4624 ;; This function calls:
  4625 ;;		Nothing
  4626 ;; This function is called by:
  4627 ;;		_manage
  4628 ;; This function uses a non-reentrant model
  4629 ;;
  4630                           
  4631                           	psect	text21
  4632   00281C                     __ptext21:
  4633                           	callstack 0
  4634   00281C                     _Timer1_ISR:
  4635                           	callstack 25
  4636   00281C                     
  4637                           ;MCAL_Layer/Timers/Timer1.c: 101:     PIR1bits.TMR1IF=0;
  4638   00281C  909E               	bcf	158,0,c	;volatile
  4639   00281E                     
  4640                           ;MCAL_Layer/Timers/Timer1.c: 102:     TMR1H=timer1_preload>>8;
  4641   00281E  505B               	movf	(_timer1_preload+1)^0,w,c
  4642   002820  6ECF               	movwf	207,c	;volatile
  4643   002822                     
  4644                           ;MCAL_Layer/Timers/Timer1.c: 103:     TMR1L=(u8)timer1_preload;
  4645   002822  C05A  FFCE         	movff	_timer1_preload,4046	;volatile
  4646   002826  0012               	return		;funcret
  4647   002828                     __end_of_Timer1_ISR:
  4648                           	callstack 0
  4649                           
  4650 ;; *************** function _Timer0_ISR *****************
  4651 ;; Defined at:
  4652 ;;		line 128 in file "MCAL_Layer/Timers/timer0.c"
  4653 ;; Parameters:    Size  Location     Type
  4654 ;;		None
  4655 ;; Auto vars:     Size  Location     Type
  4656 ;;		None
  4657 ;; Return value:  Size  Location     Type
  4658 ;;                  1    wreg      void 
  4659 ;; Registers used:
  4660 ;;		wreg, status,2
  4661 ;; Tracked objects:
  4662 ;;		On entry : 0/0
  4663 ;;		On exit  : 0/0
  4664 ;;		Unchanged: 0/0
  4665 ;; Data sizes:     COMRAM   BANK0   BANK1   BANK2   BANK3   BANK4   BANK5   BANK6   BANK7   BANK8   BANK9  BANK10  BANK1
      +1  BANK12  BANK13  BANK14  BANK15
  4666 ;;      Params:         0       0       0       0       0       0       0       0       0       0       0       0       
      +0       0       0       0       0
  4667 ;;      Locals:         0       0       0       0       0       0       0       0       0       0       0       0       
      +0       0       0       0       0
  4668 ;;      Temps:          0       0       0       0       0       0       0       0       0       0       0       0       
      +0       0       0       0       0
  4669 ;;      Totals:         0       0       0       0       0       0       0       0       0       0       0       0       
      +0       0       0       0       0
  4670 ;;Total ram usage:        0 bytes
  4671 ;; Hardware stack levels used: 1
  4672 ;; This function calls:
  4673 ;;		Nothing
  4674 ;; This function is called by:
  4675 ;;		_manage
  4676 ;; This function uses a non-reentrant model
  4677 ;;
  4678                           
  4679                           	psect	text22
  4680   002828                     __ptext22:
  4681                           	callstack 0
  4682   002828                     _Timer0_ISR:
  4683                           	callstack 25
  4684   002828                     
  4685                           ;MCAL_Layer/Timers/timer0.c: 129:     INTCONbits.TMR0IF=0;
  4686   002828  94F2               	bcf	242,2,c	;volatile
  4687   00282A                     
  4688                           ;MCAL_Layer/Timers/timer0.c: 130:     TMR0H=timer0_preload>>8;
  4689   00282A  505D               	movf	(_timer0_preload+1)^0,w,c
  4690   00282C  6ED7               	movwf	215,c	;volatile
  4691   00282E                     
  4692                           ;MCAL_Layer/Timers/timer0.c: 131:     TMR0L=(u8)timer0_preload;
  4693   00282E  C05C  FFD6         	movff	_timer0_preload,4054	;volatile
  4694   002832  0012               	return		;funcret
  4695   002834                     __end_of_Timer0_ISR:
  4696                           	callstack 0
  4697                           
  4698 ;; *************** function _INT2_ISR *****************
  4699 ;; Defined at:
  4700 ;;		line 273 in file "MCAL_Layer/interrupt/external_interrupt.c"
  4701 ;; Parameters:    Size  Location     Type
  4702 ;;		None
  4703 ;; Auto vars:     Size  Location     Type
  4704 ;;		None
  4705 ;; Return value:  Size  Location     Type
  4706 ;;                  1    wreg      void 
  4707 ;; Registers used:
  4708 ;;		None
  4709 ;; Tracked objects:
  4710 ;;		On entry : 0/0
  4711 ;;		On exit  : 0/0
  4712 ;;		Unchanged: 0/0
  4713 ;; Data sizes:     COMRAM   BANK0   BANK1   BANK2   BANK3   BANK4   BANK5   BANK6   BANK7   BANK8   BANK9  BANK10  BANK1
      +1  BANK12  BANK13  BANK14  BANK15
  4714 ;;      Params:         0       0       0       0       0       0       0       0       0       0       0       0       
      +0       0       0       0       0
  4715 ;;      Locals:         0       0       0       0       0       0       0       0       0       0       0       0       
      +0       0       0       0       0
  4716 ;;      Temps:          0       0       0       0       0       0       0       0       0       0       0       0       
      +0       0       0       0       0
  4717 ;;      Totals:         0       0       0       0       0       0       0       0       0       0       0       0       
      +0       0       0       0       0
  4718 ;;Total ram usage:        0 bytes
  4719 ;; Hardware stack levels used: 1
  4720 ;; This function calls:
  4721 ;;		Nothing
  4722 ;; This function is called by:
  4723 ;;		_manage
  4724 ;; This function uses a non-reentrant model
  4725 ;;
  4726                           
  4727                           	psect	text23
  4728   002846                     __ptext23:
  4729                           	callstack 0
  4730   002846                     _INT2_ISR:
  4731                           	callstack 25
  4732   002846                     
  4733                           ;MCAL_Layer/interrupt/external_interrupt.c: 275:     INTCON3bits.INT2IF=0;
  4734   002846  92F0               	bcf	240,1,c	;volatile
  4735   002848  0012               	return		;funcret
  4736   00284A                     __end_of_INT2_ISR:
  4737                           	callstack 0
  4738                           
  4739 ;; *************** function _INT1_ISR *****************
  4740 ;; Defined at:
  4741 ;;		line 268 in file "MCAL_Layer/interrupt/external_interrupt.c"
  4742 ;; Parameters:    Size  Location     Type
  4743 ;;		None
  4744 ;; Auto vars:     Size  Location     Type
  4745 ;;		None
  4746 ;; Return value:  Size  Location     Type
  4747 ;;                  1    wreg      void 
  4748 ;; Registers used:
  4749 ;;		None
  4750 ;; Tracked objects:
  4751 ;;		On entry : 0/0
  4752 ;;		On exit  : 0/0
  4753 ;;		Unchanged: 0/0
  4754 ;; Data sizes:     COMRAM   BANK0   BANK1   BANK2   BANK3   BANK4   BANK5   BANK6   BANK7   BANK8   BANK9  BANK10  BANK1
      +1  BANK12  BANK13  BANK14  BANK15
  4755 ;;      Params:         0       0       0       0       0       0       0       0       0       0       0       0       
      +0       0       0       0       0
  4756 ;;      Locals:         0       0       0       0       0       0       0       0       0       0       0       0       
      +0       0       0       0       0
  4757 ;;      Temps:          0       0       0       0       0       0       0       0       0       0       0       0       
      +0       0       0       0       0
  4758 ;;      Totals:         0       0       0       0       0       0       0       0       0       0       0       0       
      +0       0       0       0       0
  4759 ;;Total ram usage:        0 bytes
  4760 ;; Hardware stack levels used: 1
  4761 ;; This function calls:
  4762 ;;		Nothing
  4763 ;; This function is called by:
  4764 ;;		_manage
  4765 ;; This function uses a non-reentrant model
  4766 ;;
  4767                           
  4768                           	psect	text24
  4769   00284A                     __ptext24:
  4770                           	callstack 0
  4771   00284A                     _INT1_ISR:
  4772                           	callstack 25
  4773   00284A                     
  4774                           ;MCAL_Layer/interrupt/external_interrupt.c: 270:     INTCON3bits.INT1IF=0;
  4775   00284A  90F0               	bcf	240,0,c	;volatile
  4776   00284C  0012               	return		;funcret
  4777   00284E                     __end_of_INT1_ISR:
  4778                           	callstack 0
  4779                           
  4780 ;; *************** function _INT0_ISR *****************
  4781 ;; Defined at:
  4782 ;;		line 263 in file "MCAL_Layer/interrupt/external_interrupt.c"
  4783 ;; Parameters:    Size  Location     Type
  4784 ;;		None
  4785 ;; Auto vars:     Size  Location     Type
  4786 ;;		None
  4787 ;; Return value:  Size  Location     Type
  4788 ;;                  1    wreg      void 
  4789 ;; Registers used:
  4790 ;;		None
  4791 ;; Tracked objects:
  4792 ;;		On entry : 0/0
  4793 ;;		On exit  : 0/0
  4794 ;;		Unchanged: 0/0
  4795 ;; Data sizes:     COMRAM   BANK0   BANK1   BANK2   BANK3   BANK4   BANK5   BANK6   BANK7   BANK8   BANK9  BANK10  BANK1
      +1  BANK12  BANK13  BANK14  BANK15
  4796 ;;      Params:         0       0       0       0       0       0       0       0       0       0       0       0       
      +0       0       0       0       0
  4797 ;;      Locals:         0       0       0       0       0       0       0       0       0       0       0       0       
      +0       0       0       0       0
  4798 ;;      Temps:          0       0       0       0       0       0       0       0       0       0       0       0       
      +0       0       0       0       0
  4799 ;;      Totals:         0       0       0       0       0       0       0       0       0       0       0       0       
      +0       0       0       0       0
  4800 ;;Total ram usage:        0 bytes
  4801 ;; Hardware stack levels used: 1
  4802 ;; This function calls:
  4803 ;;		Nothing
  4804 ;; This function is called by:
  4805 ;;		_manage
  4806 ;; This function uses a non-reentrant model
  4807 ;;
  4808                           
  4809                           	psect	text25
  4810   00284E                     __ptext25:
  4811                           	callstack 0
  4812   00284E                     _INT0_ISR:
  4813                           	callstack 25
  4814   00284E                     
  4815                           ;MCAL_Layer/interrupt/external_interrupt.c: 265:     INTCONbits.INT0IF=0;
  4816   00284E  92F2               	bcf	242,1,c	;volatile
  4817   002850  0012               	return		;funcret
  4818   002852                     __end_of_INT0_ISR:
  4819                           	callstack 0
  4820                           
  4821                           	psect	rparam
  4822   000000                     
  4823                           	psect	temp
  4824   00007E                     btemp:
  4825                           	callstack 0
  4826   00007E                     	ds	1
  4827   000000                     int$flags	set	btemp
  4828   000000                     wtemp8	set	btemp+1
  4829   000000                     ttemp5	set	btemp+1
  4830   000000                     ttemp6	set	btemp+4
  4831   000000                     ttemp7	set	btemp+8
  4832                           
  4833                           	psect	config
  4834                           
  4835                           ; Padding undefined space
  4836   300000                     	org	3145728
  4837   300000  FF                 	db	255
  4838                           
  4839                           ;Config register CONFIG1H @ 0x300001
  4840                           ;	Oscillator Selection bits
  4841                           ;	OSC = HS, HS oscillator
  4842                           ;	Fail-Safe Clock Monitor Enable bit
  4843                           ;	FCMEN = OFF, Fail-Safe Clock Monitor disabled
  4844                           ;	Internal/External Oscillator Switchover bit
  4845                           ;	IESO = OFF, Oscillator Switchover mode disabled
  4846   300001                     	org	3145729
  4847   300001  02                 	db	2
  4848                           
  4849                           ;Config register CONFIG2L @ 0x300002
  4850                           ;	Power-up Timer Enable bit
  4851                           ;	PWRT = OFF, PWRT disabled
  4852                           ;	Brown-out Reset Enable bits
  4853                           ;	BOREN = OFF, Brown-out Reset disabled in hardware and software
  4854                           ;	Brown Out Reset Voltage bits
  4855                           ;	BORV = 1, 
  4856   300002                     	org	3145730
  4857   300002  09                 	db	9
  4858                           
  4859                           ;Config register CONFIG2H @ 0x300003
  4860                           ;	Watchdog Timer Enable bit
  4861                           ;	WDT = OFF, WDT disabled (control is placed on the SWDTEN bit)
  4862                           ;	Watchdog Timer Postscale Select bits
  4863                           ;	WDTPS = 32768, 1:32768
  4864   300003                     	org	3145731
  4865   300003  1E                 	db	30
  4866                           
  4867                           ; Padding undefined space
  4868   300004                     	org	3145732
  4869   300004  FF                 	db	255
  4870                           
  4871                           ;Config register CONFIG3H @ 0x300005
  4872                           ;	CCP2 MUX bit
  4873                           ;	CCP2MX = PORTC, CCP2 input/output is multiplexed with RC1
  4874                           ;	PORTB A/D Enable bit
  4875                           ;	PBADEN = OFF, PORTB<4:0> pins are configured as digital I/O on Reset
  4876                           ;	Low-Power Timer1 Oscillator Enable bit
  4877                           ;	LPT1OSC = OFF, Timer1 configured for higher power operation
  4878                           ;	MCLR Pin Enable bit
  4879                           ;	MCLRE = ON, MCLR pin enabled; RE3 input pin disabled
  4880   300005                     	org	3145733
  4881   300005  81                 	db	129
  4882                           
  4883                           ;Config register CONFIG4L @ 0x300006
  4884                           ;	Stack Full/Underflow Reset Enable bit
  4885                           ;	STVREN = ON, Stack full/underflow will cause Reset
  4886                           ;	Single-Supply ICSP Enable bit
  4887                           ;	LVP = OFF, Single-Supply ICSP disabled
  4888                           ;	Extended Instruction Set Enable bit
  4889                           ;	XINST = OFF, Instruction set extension and Indexed Addressing mode disabled (Legacy mo
      +                          de)
  4890                           ;	Background Debugger Enable bit
  4891                           ;	DEBUG = 0x1, unprogrammed default
  4892   300006                     	org	3145734
  4893   300006  81                 	db	129
  4894                           
  4895                           ; Padding undefined space
  4896   300007                     	org	3145735
  4897   300007  FF                 	db	255
  4898                           
  4899                           ;Config register CONFIG5L @ 0x300008
  4900                           ;	Code Protection bit
  4901                           ;	CP0 = OFF, Block 0 (000800-003FFFh) not code-protected
  4902                           ;	Code Protection bit
  4903                           ;	CP1 = OFF, Block 1 (004000-007FFFh) not code-protected
  4904                           ;	Code Protection bit
  4905                           ;	CP2 = OFF, Block 2 (008000-00BFFFh) not code-protected
  4906                           ;	Code Protection bit
  4907                           ;	CP3 = OFF, Block 3 (00C000-00FFFFh) not code-protected
  4908   300008                     	org	3145736
  4909   300008  0F                 	db	15
  4910                           
  4911                           ;Config register CONFIG5H @ 0x300009
  4912                           ;	Boot Block Code Protection bit
  4913                           ;	CPB = OFF, Boot block (000000-0007FFh) not code-protected
  4914                           ;	Data EEPROM Code Protection bit
  4915                           ;	CPD = OFF, Data EEPROM not code-protected
  4916   300009                     	org	3145737
  4917   300009  C0                 	db	192
  4918                           
  4919                           ;Config register CONFIG6L @ 0x30000A
  4920                           ;	Write Protection bit
  4921                           ;	WRT0 = OFF, Block 0 (000800-003FFFh) not write-protected
  4922                           ;	Write Protection bit
  4923                           ;	WRT1 = OFF, Block 1 (004000-007FFFh) not write-protected
  4924                           ;	Write Protection bit
  4925                           ;	WRT2 = OFF, Block 2 (008000-00BFFFh) not write-protected
  4926                           ;	Write Protection bit
  4927                           ;	WRT3 = OFF, Block 3 (00C000-00FFFFh) not write-protected
  4928   30000A                     	org	3145738
  4929   30000A  0F                 	db	15
  4930                           
  4931                           ;Config register CONFIG6H @ 0x30000B
  4932                           ;	Configuration Register Write Protection bit
  4933                           ;	WRTC = OFF, Configuration registers (300000-3000FFh) not write-protected
  4934                           ;	Boot Block Write Protection bit
  4935                           ;	WRTB = OFF, Boot Block (000000-0007FFh) not write-protected
  4936                           ;	Data EEPROM Write Protection bit
  4937                           ;	WRTD = OFF, Data EEPROM not write-protected
  4938   30000B                     	org	3145739
  4939   30000B  E0                 	db	224
  4940                           
  4941                           ;Config register CONFIG7L @ 0x30000C
  4942                           ;	Table Read Protection bit
  4943                           ;	EBTR0 = OFF, Block 0 (000800-003FFFh) not protected from table reads executed in other
      +                           blocks
  4944                           ;	Table Read Protection bit
  4945                           ;	EBTR1 = OFF, Block 1 (004000-007FFFh) not protected from table reads executed in other
      +                           blocks
  4946                           ;	Table Read Protection bit
  4947                           ;	EBTR2 = OFF, Block 2 (008000-00BFFFh) not protected from table reads executed in other
      +                           blocks
  4948                           ;	Table Read Protection bit
  4949                           ;	EBTR3 = OFF, Block 3 (00C000-00FFFFh) not protected from table reads executed in other
      +                           blocks
  4950   30000C                     	org	3145740
  4951   30000C  0F                 	db	15
  4952                           
  4953                           ;Config register CONFIG7H @ 0x30000D
  4954                           ;	Boot Block Table Read Protection bit
  4955                           ;	EBTRB = OFF, Boot Block (000000-0007FFh) not protected from table reads executed in ot
      +                          her blocks
  4956   30000D                     	org	3145741
  4957   30000D  40                 	db	64
  4958                           tosu	equ	0xFFF
  4959                           tosh	equ	0xFFE
  4960                           tosl	equ	0xFFD
  4961                           stkptr	equ	0xFFC
  4962                           pclatu	equ	0xFFB
  4963                           pclath	equ	0xFFA
  4964                           pcl	equ	0xFF9
  4965                           tblptru	equ	0xFF8
  4966                           tblptrh	equ	0xFF7
  4967                           tblptrl	equ	0xFF6
  4968                           tablat	equ	0xFF5
  4969                           prodh	equ	0xFF4
  4970                           prodl	equ	0xFF3
  4971                           indf0	equ	0xFEF
  4972                           postinc0	equ	0xFEE
  4973                           postdec0	equ	0xFED
  4974                           preinc0	equ	0xFEC
  4975                           plusw0	equ	0xFEB
  4976                           fsr0h	equ	0xFEA
  4977                           fsr0l	equ	0xFE9
  4978                           wreg	equ	0xFE8
  4979                           indf1	equ	0xFE7
  4980                           postinc1	equ	0xFE6
  4981                           postdec1	equ	0xFE5
  4982                           preinc1	equ	0xFE4
  4983                           plusw1	equ	0xFE3
  4984                           fsr1h	equ	0xFE2
  4985                           fsr1l	equ	0xFE1
  4986                           bsr	equ	0xFE0
  4987                           indf2	equ	0xFDF
  4988                           postinc2	equ	0xFDE
  4989                           postdec2	equ	0xFDD
  4990                           preinc2	equ	0xFDC
  4991                           plusw2	equ	0xFDB
  4992                           fsr2h	equ	0xFDA
  4993                           fsr2l	equ	0xFD9
  4994                           status	equ	0xFD8

Data Sizes:
    Strings     43
    Constant    0
    Data        156
    BSS         72
    Persistent  0
    Stack       0

Auto Spaces:
    Space          Size  Autos    Used
    COMRAM          126     85     125
    BANK0           128      0     116
    BANK1           256      0      72
    BANK2           256      0       0
    BANK3           256      0       0
    BANK4           256      0       0
    BANK5           256      0       0
    BANK6           256      0       0
    BANK7           256      0       0
    BANK8           256      0       0
    BANK9           256      0       0
    BANK10          256      0       0
    BANK11          256      0       0
    BANK12          256      0       0
    BANK13          256      0       0
    BANK14          256      0       0
    BANK15          128      0       0

Pointer List with Targets:

    ADC_GetConverionResult@adc$ADC_InterruptHandler	PTR FTN()void  size(2) Largest target is 0

    ADC_Init@adc$ADC_InterruptHandler	PTR FTN()void  size(2) Largest target is 0

    ADC_InterruptHandler	PTR FTN()void  size(2) Largest target is 1
		 -> NULL(), 

    adc_select_format@adc$ADC_InterruptHandler	PTR FTN()void  size(2) Largest target is 0

    adc_select_voltage_reference@adc$ADC_InterruptHandler	PTR FTN()void  size(2) Largest target is 0

    ADC_SelectChannel@adc$ADC_InterruptHandler	PTR FTN()void  size(2) Largest target is 0

    CCP1_InterruptHandler	PTR FTN()void  size(2) Largest target is 1
		 -> NULL(), 

    CCP_Compare_Mode_Config@_ccp_obj$CCP1_InterruptHandler	PTR FTN()void  size(2) Largest target is 0

    CCP_Compare_Mode_Set_Value@_ccp_obj$CCP1_InterruptHandler	PTR FTN()void  size(2) Largest target is 0

    CCP_DeInit@_ccp_obj$CCP1_InterruptHandler	PTR FTN()void  size(2) Largest target is 0

    CCP_Init@_ccp_obj$CCP1_InterruptHandler	PTR FTN()void  size(2) Largest target is 0

    CCP_Interrupt_Config@_ccp_obj$CCP1_InterruptHandler	PTR FTN()void  size(2) Largest target is 0

    CCP_PWM_Mode_Config@_ccp_obj$CCP1_InterruptHandler	PTR FTN()void  size(2) Largest target is 0

    CCP_PWM_Set_Duty@_ccp_obj$CCP1_InterruptHandler	PTR FTN()void  size(2) Largest target is 0

    CCP_PWM_Start@_ccp_obj$CCP1_InterruptHandler	PTR FTN()void  size(2) Largest target is 0

    CCP_PWM_Stop@_ccp_obj$CCP1_InterruptHandler	PTR FTN()void  size(2) Largest target is 0

    f$.$buffer	PTR unsigned char  size(2) Largest target is 0

    f$.$source	PTR const unsigned char  size(2) Largest target is 0

    gpio_set_pin_direction@pin_config	PTR struct . size(2) Largest target is 32
		 -> BUZ_init@buz_obj(COMRAM[4]), door_sensor(BANK0[6]), keypad1(BANK1[32]), keypad1$keypad_column(BANK1[16]), 
		 -> keypad1$keypad_row(BANK1[16]), lcd1(BANK1[24]), lcd1$data(BANK1[16]), LED_init@led_obj(COMRAM[4]), 
		 -> Microwave_motor(BANK0[8]), Microwave_motor$dc_motor_pin(BANK0[8]), start_btn(BANK0[6]), weight_sensor(BANK0[6]), 

    gpio_write_pin_logic@pin_config	PTR struct . size(2) Largest target is 32
		 -> BUZ_off@led_obj(COMRAM[4]), BUZ_on@buz_obj(COMRAM[4]), keypad1(BANK1[32]), keypad1$keypad_column(BANK1[16]), 
		 -> keypad1$keypad_row(BANK1[16]), lcd1(BANK1[24]), lcd1$data(BANK1[16]), LED_off@led_obj(COMRAM[4]), 
		 -> LED_on@led_obj(COMRAM[4]), Microwave_motor(BANK0[8]), Microwave_motor$dc_motor_pin(BANK0[8]), 

    INT0_InterruptHandler	PTR FTN()void  size(2) Largest target is 1
		 -> NULL(), 

    INT1_InterruptHandler	PTR FTN()void  size(2) Largest target is 1
		 -> NULL(), 

    INT2_InterruptHandler	PTR FTN()void  size(2) Largest target is 1
		 -> NULL(), 

    INTx_Clear_Flag@int_obj$EXT_InterruptHandler	PTR FTN()void  size(2) Largest target is 0

    INTx_Disable@int_obj$EXT_InterruptHandler	PTR FTN()void  size(2) Largest target is 0

    INTx_Edge@int_obj$EXT_InterruptHandler	PTR FTN()void  size(2) Largest target is 0

    INTx_Enable@int_obj$EXT_InterruptHandler	PTR FTN()void  size(2) Largest target is 0

    INTx_pin_Init@int_obj$EXT_InterruptHandler	PTR FTN()void  size(2) Largest target is 0

    INTx_SetInterruptHandler@int_obj$EXT_InterruptHandler	PTR FTN()void  size(2) Largest target is 0

    LAT_registers	PTR volatile unsigned char [5] size(2) Largest target is 1
		 -> LATA(BITBIGSFRlllll[1]), LATB(BITBIGSFRllllh[1]), LATC(BITBIGSFRllllh[1]), LATD(BITBIGSFRllllh[1]), 
		 -> LATE(BITBIGSFRllllh[1]), 

    LED_init@led	PTR struct . size(1) Largest target is 2
		 -> led1(COMRAM[2]), led2(COMRAM[2]), 

    LED_off@led	PTR struct . size(1) Largest target is 2
		 -> led1(COMRAM[2]), led2(COMRAM[2]), 

    LED_on@led	PTR struct . size(1) Largest target is 2
		 -> led1(COMRAM[2]), led2(COMRAM[2]), 

    obj$EUSART_FramingErrorHandler	PTR FTN()void  size(2) Largest target is 0
		 -> NULL(NULL[0]), 

    obj$EUSART_OverrunErrorHandler	PTR FTN()void  size(2) Largest target is 0
		 -> NULL(NULL[0]), 

    obj$EUSART_RxDefaultInterruptHandler	PTR FTN()void  size(2) Largest target is 0
		 -> NULL(NULL[0]), 

    obj$EUSART_TxDefaultInterruptHandler	PTR FTN()void  size(2) Largest target is 0
		 -> NULL(NULL[0]), 

    PORT_registers	PTR volatile unsigned char [5] size(2) Largest target is 1
		 -> PORTA(BITBIGSFRlllll[1]), PORTB(BITBIGSFRlllll[1]), PORTC(BITBIGSFRlllll[1]), PORTD(BITBIGSFRlllll[1]), 
		 -> PORTE(BITBIGSFRlllll[1]), 

    RB4_InterruptHandler_High	PTR FTN()void  size(2) Largest target is 1
		 -> NULL(), 

    RB4_InterruptHandler_Low	PTR FTN()void  size(2) Largest target is 1
		 -> NULL(), 

    RB5_InterruptHandler_High	PTR FTN()void  size(2) Largest target is 1
		 -> NULL(), 

    RB5_InterruptHandler_Low	PTR FTN()void  size(2) Largest target is 1
		 -> NULL(), 

    RB6_InterruptHandler_High	PTR FTN()void  size(2) Largest target is 1
		 -> NULL(), 

    RB6_InterruptHandler_Low	PTR FTN()void  size(2) Largest target is 1
		 -> NULL(), 

    RB7_InterruptHandler_High	PTR FTN()void  size(2) Largest target is 1
		 -> NULL(), 

    RB7_InterruptHandler_Low	PTR FTN()void  size(2) Largest target is 1
		 -> NULL(), 

    RBx_pin_Init@int_obj$EXT_InterruptHandler_High	PTR FTN()void  size(2) Largest target is 0

    RBx_pin_Init@int_obj$EXT_InterruptHandler_Low	PTR FTN()void  size(2) Largest target is 0

    RBx_SetInterruptHandler@int_obj$EXT_InterruptHandler_High	PTR FTN()void  size(2) Largest target is 0

    RBx_SetInterruptHandler@int_obj$EXT_InterruptHandler_Low	PTR FTN()void  size(2) Largest target is 0

    S1273$CCP1_InterruptHandler	PTR FTN()void  size(2) Largest target is 0

    S1868$EXT_InterruptHandler	PTR FTN()void  size(2) Largest target is 0

    S1909$EXT_InterruptHandler_High	PTR FTN()void  size(2) Largest target is 0

    S1909$EXT_InterruptHandler_Low	PTR FTN()void  size(2) Largest target is 0

    S2471$Timer0_InterruptHandler	PTR FTN()void  size(2) Largest target is 0

    S2647$Timer1_InterruptHandler	PTR FTN()void  size(2) Largest target is 0

    S2862$Timer2_Interrupt_Handler	PTR FTN()void  size(2) Largest target is 1
		 -> NULL(), 

    S2996$Timer3_InterruptHandler	PTR FTN()void  size(2) Largest target is 0

    S3234$EUSART_FramingErrorHandler	PTR FTN()void  size(2) Largest target is 0
		 -> NULL(NULL[0]), 

    S3234$EUSART_OverrunErrorHandler	PTR FTN()void  size(2) Largest target is 0
		 -> NULL(NULL[0]), 

    S3234$EUSART_RxDefaultInterruptHandler	PTR FTN()void  size(2) Largest target is 0
		 -> NULL(NULL[0]), 

    S3234$EUSART_TxDefaultInterruptHandler	PTR FTN()void  size(2) Largest target is 0
		 -> NULL(NULL[0]), 

    S4193$buffer	PTR unsigned char  size(2) Largest target is 0

    S4193$source	PTR const unsigned char  size(2) Largest target is 0

    S840$ADC_InterruptHandler	PTR FTN()void  size(2) Largest target is 0

    sp__memset	PTR void  size(2) Largest target is 0

    timer0_Init@timer0$Timer0_InterruptHandler	PTR FTN()void  size(2) Largest target is 0

    timer0_InterruptHandler	PTR FTN()void  size(2) Largest target is 1
		 -> NULL(), 

    timer0_mode_cfg@timer0$Timer0_InterruptHandler	PTR FTN()void  size(2) Largest target is 0

    timer0_prescaler_cfg@timer0$Timer0_InterruptHandler	PTR FTN()void  size(2) Largest target is 0

    timer0_Register_size_Config@timer0$Timer0_InterruptHandler	PTR FTN()void  size(2) Largest target is 0

    timer1_Init@timer1$Timer1_InterruptHandler	PTR FTN()void  size(2) Largest target is 0

    timer1_InterruptHandler	PTR FTN()void  size(2) Largest target is 1
		 -> NULL(), 

    timer1_mode_cfg@timer1$Timer1_InterruptHandler	PTR FTN()void  size(2) Largest target is 0

    timer1_prescaler_cfg@timer1$Timer1_InterruptHandler	PTR FTN()void  size(2) Largest target is 0

    Timer2_Init@timer2$Timer2_Interrupt_Handler	PTR FTN()void  size(2) Largest target is 1
		 -> NULL(), 

    Timer2_Interrupt_Handler	PTR FTN()void  size(2) Largest target is 1
		 -> NULL(), 

    timer3_counter_mode_cfg@timer3$Timer3_InterruptHandler	PTR FTN()void  size(2) Largest target is 0

    timer3_Init@timer3$Timer3_InterruptHandler	PTR FTN()void  size(2) Largest target is 0

    Timer3_InterruptHandler	PTR FTN()void  size(2) Largest target is 1
		 -> NULL(), 

    timer3_mode_cfg@timer3$Timer3_InterruptHandler	PTR FTN()void  size(2) Largest target is 0

    tris_registers	PTR volatile unsigned char [5] size(2) Largest target is 1
		 -> TRISA(BITBIGSFRlllll[1]), TRISB(ABS[1]), TRISC(ABS[1]), TRISD(ABS[1]), 
		 -> TRISE(ABS[1]), 

    Uart_ASYNC_RX_Init@_eusart	PTR const struct . size(1) Largest target is 16
		 -> uart_init@obj(COMRAM[16]), 

    Uart_ASYNC_RX_Init@_eusart$EUSART_FramingErrorHandler	PTR FTN()void  size(2) Largest target is 0
		 -> NULL(NULL[0]), 

    Uart_ASYNC_RX_Init@_eusart$EUSART_OverrunErrorHandler	PTR FTN()void  size(2) Largest target is 0
		 -> NULL(NULL[0]), 

    Uart_ASYNC_RX_Init@_eusart$EUSART_RxDefaultInterruptHandler	PTR FTN()void  size(2) Largest target is 0
		 -> NULL(NULL[0]), 

    Uart_ASYNC_RX_Init@_eusart$EUSART_TxDefaultInterruptHandler	PTR FTN()void  size(2) Largest target is 0
		 -> NULL(NULL[0]), 

    Uart_ASYNC_TX_Init@_eusart	PTR const struct . size(1) Largest target is 16
		 -> uart_init@obj(COMRAM[16]), 

    Uart_ASYNC_TX_Init@_eusart$EUSART_FramingErrorHandler	PTR FTN()void  size(2) Largest target is 0
		 -> NULL(NULL[0]), 

    Uart_ASYNC_TX_Init@_eusart$EUSART_OverrunErrorHandler	PTR FTN()void  size(2) Largest target is 0
		 -> NULL(NULL[0]), 

    Uart_ASYNC_TX_Init@_eusart$EUSART_RxDefaultInterruptHandler	PTR FTN()void  size(2) Largest target is 0
		 -> NULL(NULL[0]), 

    Uart_ASYNC_TX_Init@_eusart$EUSART_TxDefaultInterruptHandler	PTR FTN()void  size(2) Largest target is 0
		 -> NULL(NULL[0]), 

    Uart_Baud_Rate_Calculation@_eusart	PTR const struct . size(1) Largest target is 16
		 -> uart_init@obj(COMRAM[16]), 

    Uart_Baud_Rate_Calculation@_eusart$EUSART_FramingErrorHandler	PTR FTN()void  size(2) Largest target is 0
		 -> NULL(NULL[0]), 

    Uart_Baud_Rate_Calculation@_eusart$EUSART_OverrunErrorHandler	PTR FTN()void  size(2) Largest target is 0
		 -> NULL(NULL[0]), 

    Uart_Baud_Rate_Calculation@_eusart$EUSART_RxDefaultInterruptHandler	PTR FTN()void  size(2) Largest target is 0
		 -> NULL(NULL[0]), 

    Uart_Baud_Rate_Calculation@_eusart$EUSART_TxDefaultInterruptHandler	PTR FTN()void  size(2) Largest target is 0
		 -> NULL(NULL[0]), 

    Uart_Init@uart_obj	PTR struct . size(1) Largest target is 16
		 -> uart_init@obj(COMRAM[16]), 

    Uart_ReadByteNonBlocking@data	PTR unsigned char  size(1) Largest target is 1
		 -> data(COMRAM[1]), 

    Uart_WriteStringBlocking@data	PTR unsigned char  size(1) Largest target is 14
		 -> STR_4(CODE[14]), STR_5(CODE[12]), STR_6(CODE[14]), 

    vfprintf$0	PTR struct _IO_FILE size(1) Largest target is 12
		 -> sprintf@f(COMRAM[12]), 

    vfprintf$1	PTR const unsigned char  size(1) Largest target is 3
		 -> STR_1(CODE[3]), STR_2(CODE[3]), STR_3(CODE[3]), 

    vfprintf$2	PTR PTR void  size(1) Largest target is 1
		 -> sprintf@ap(COMRAM[1]), 


Critical Paths under _main in COMRAM

    _main->_uart_init
    _uart_init->_Uart_Init
    _Uart_Init->_Uart_Baud_Rate_Calculation
    _Uart_Baud_Rate_Calculation->___fladd
    ___fldiv->___xxtofl
    ___fladd->___fldiv
    _LED_on->_gpio_write_pin_logic
    _LED_off->_gpio_write_pin_logic
    _LED_init->_gpio_set_pin_direction

Critical Paths under _manage in COMRAM

    None.

Critical Paths under _main in BANK0

    None.

Critical Paths under _manage in BANK0

    None.

Critical Paths under _main in BANK1

    None.

Critical Paths under _manage in BANK1

    None.

Critical Paths under _main in BANK2

    None.

Critical Paths under _manage in BANK2

    None.

Critical Paths under _main in BANK3

    None.

Critical Paths under _manage in BANK3

    None.

Critical Paths under _main in BANK4

    None.

Critical Paths under _manage in BANK4

    None.

Critical Paths under _main in BANK5

    None.

Critical Paths under _manage in BANK5

    None.

Critical Paths under _main in BANK6

    None.

Critical Paths under _manage in BANK6

    None.

Critical Paths under _main in BANK7

    None.

Critical Paths under _manage in BANK7

    None.

Critical Paths under _main in BANK8

    None.

Critical Paths under _manage in BANK8

    None.

Critical Paths under _main in BANK9

    None.

Critical Paths under _manage in BANK9

    None.

Critical Paths under _main in BANK10

    None.

Critical Paths under _manage in BANK10

    None.

Critical Paths under _main in BANK11

    None.

Critical Paths under _manage in BANK11

    None.

Critical Paths under _main in BANK12

    None.

Critical Paths under _manage in BANK12

    None.

Critical Paths under _main in BANK13

    None.

Critical Paths under _manage in BANK13

    None.

Critical Paths under _main in BANK14

    None.

Critical Paths under _manage in BANK14

    None.

Critical Paths under _main in BANK15

    None.

Critical Paths under _manage in BANK15

    None.

Call Graph Tables:

 ---------------------------------------------------------------------------------
 (Depth) Function   	        Calls       Base Space   Used Autos Params    Refs
 ---------------------------------------------------------------------------------
 (0) _main                                                 2     2      0   20686
                                             83 COMRAM     2     2      0
                           _LED_init
                            _LED_off
                             _LED_on
           _Uart_ReadByteNonBlocking
           _Uart_WriteStringBlocking
                          _uart_init
 ---------------------------------------------------------------------------------
 (1) _uart_init                                           16    16      0    8645
                                             67 COMRAM    16    16      0
                          _Uart_Init
 ---------------------------------------------------------------------------------
 (2) _Uart_Init                                            2     1      1    8347
                                             66 COMRAM     1     0      1
                 _Uart_ASYNC_RX_Init
                 _Uart_ASYNC_TX_Init
         _Uart_Baud_Rate_Calculation
 ---------------------------------------------------------------------------------
 (3) _Uart_Baud_Rate_Calculation                          11    10      1    7803
                                             55 COMRAM    11    10      1
                            ___fladd
                            ___fldiv
                            ___fltol
                           ___xxtofl
 ---------------------------------------------------------------------------------
 (4) ___xxtofl                                            14    10      4     996
                                              0 COMRAM    14    10      4
 ---------------------------------------------------------------------------------
 (4) ___fltol                                             10     6      4     533
                                              0 COMRAM    10     6      4
 ---------------------------------------------------------------------------------
 (4) ___fldiv                                             25    17      8    2727
                                             14 COMRAM    25    17      8
                           ___xxtofl (ARG)
 ---------------------------------------------------------------------------------
 (4) ___fladd                                             16     8      8    3128
                                             39 COMRAM    16     8      8
                            ___fldiv (ARG)
 ---------------------------------------------------------------------------------
 (3) _Uart_ASYNC_TX_Init                                   1     0      1     186
                                              0 COMRAM     1     0      1
 ---------------------------------------------------------------------------------
 (3) _Uart_ASYNC_RX_Init                                   1     0      1     186
                                              0 COMRAM     1     0      1
 ---------------------------------------------------------------------------------
 (1) _Uart_WriteStringBlocking                             2     1      1     280
                                              0 COMRAM     1     0      1
 ---------------------------------------------------------------------------------
 (1) _Uart_ReadByteNonBlocking                             1     0      1      98
                                              0 COMRAM     1     0      1
 ---------------------------------------------------------------------------------
 (1) _LED_on                                               6     5      1    5247
                                              8 COMRAM     5     4      1
               _gpio_write_pin_logic
 ---------------------------------------------------------------------------------
 (1) _LED_off                                              6     5      1    5247
                                              8 COMRAM     5     4      1
               _gpio_write_pin_logic
 ---------------------------------------------------------------------------------
 (2) _gpio_write_pin_logic                                 9     6      3    4761
                                              0 COMRAM     8     5      3
 ---------------------------------------------------------------------------------
 (1) _LED_init                                             6     5      1    1169
                                              7 COMRAM     5     4      1
             _gpio_set_pin_direction
 ---------------------------------------------------------------------------------
 (2) _gpio_set_pin_direction                               8     6      2     624
                                              0 COMRAM     7     5      2
 ---------------------------------------------------------------------------------
 Estimated maximum stack depth 4
 ---------------------------------------------------------------------------------
 (Depth) Function   	        Calls       Base Space   Used Autos Params    Refs
 ---------------------------------------------------------------------------------
 (5) _manage                                               0     0      0       0
                           _INT0_ISR
                           _INT1_ISR
                           _INT2_ISR
                         _Timer0_ISR
                         _Timer1_ISR
                         _Timer2_ISR
                            _adc_ISR
                         _timer3_ISR
 ---------------------------------------------------------------------------------
 (6) _timer3_ISR                                           0     0      0       0
 ---------------------------------------------------------------------------------
 (6) _adc_ISR                                              0     0      0       0
 ---------------------------------------------------------------------------------
 (6) _Timer2_ISR                                           0     0      0       0
 ---------------------------------------------------------------------------------
 (6) _Timer1_ISR                                           0     0      0       0
 ---------------------------------------------------------------------------------
 (6) _Timer0_ISR                                           0     0      0       0
 ---------------------------------------------------------------------------------
 (6) _INT2_ISR                                             0     0      0       0
 ---------------------------------------------------------------------------------
 (6) _INT1_ISR                                             0     0      0       0
 ---------------------------------------------------------------------------------
 (6) _INT0_ISR                                             0     0      0       0
 ---------------------------------------------------------------------------------
 Estimated maximum stack depth 6
 ---------------------------------------------------------------------------------

 Call Graph Graphs:

 _main (ROOT)
   _LED_init
     _gpio_set_pin_direction
   _LED_off
     _gpio_write_pin_logic
   _LED_on
     _gpio_write_pin_logic
   _Uart_ReadByteNonBlocking
   _Uart_WriteStringBlocking
   _uart_init
     _Uart_Init
       _Uart_ASYNC_RX_Init
       _Uart_ASYNC_TX_Init
       _Uart_Baud_Rate_Calculation
         ___fladd
           ___fldiv (ARG)
             ___xxtofl (ARG)
         ___fldiv
         ___fltol
         ___xxtofl

 _manage (ROOT)
   _INT0_ISR
   _INT1_ISR
   _INT2_ISR
   _Timer0_ISR
   _Timer1_ISR
   _Timer2_ISR
   _adc_ISR
   _timer3_ISR

 Address spaces:
Name               Size   Autos  Total    Cost      Usage
BIGRAM             F7F      0       0      48        0.0%
EEDATA             400      0       0       0        0.0%
BITBANK14          100      0       0      32        0.0%
BANK14             100      0       0      33        0.0%
BITBANK13          100      0       0      30        0.0%
BANK13             100      0       0      31        0.0%
BITBANK12          100      0       0      28        0.0%
BANK12             100      0       0      29        0.0%
BITBANK11          100      0       0      26        0.0%
BANK11             100      0       0      27        0.0%
BITBANK10          100      0       0      24        0.0%
BANK10             100      0       0      25        0.0%
BITBANK9           100      0       0      22        0.0%
BANK9              100      0       0      23        0.0%
BITBANK8           100      0       0      20        0.0%
BANK8              100      0       0      21        0.0%
BITBANK7           100      0       0      18        0.0%
BANK7              100      0       0      19        0.0%
BITBANK6           100      0       0      16        0.0%
BANK6              100      0       0      17        0.0%
BITBANK5           100      0       0      14        0.0%
BANK5              100      0       0      15        0.0%
BITBANK4           100      0       0      12        0.0%
BANK4              100      0       0      13        0.0%
BITBANK3           100      0       0      10        0.0%
BANK3              100      0       0      11        0.0%
BITBANK2           100      0       0       8        0.0%
BANK2              100      0       0       9        0.0%
BITBANK1           100      0       0       6        0.0%
BANK1              100      0      48       7       28.1%
BITBANK15           80      0       0      34        0.0%
BANK15              80      0       0      35        0.0%
BITBANK0            80      0       0       4        0.0%
BANK0               80      0      74       5       90.6%
BITCOMRAM           7E      0       0       0        0.0%
COMRAM              7E     55      7D       1       99.2%
BITBIGSFRhlhlhh     18      0       0      37        0.0%
BITBIGSFRhh          D      0       0      36        0.0%
BITBIGSFRlllhh       6      0       0      44        0.0%
BITBIGSFRhlhllh      5      0       0      38        0.0%
BITBIGSFRhll         5      0       0      39        0.0%
BITBIGSFRllhllh      4      0       0      41        0.0%
BITBIGSFRllhlll      4      0       0      42        0.0%
BITBIGSFRllllh       4      0       0      45        0.0%
BITBIGSFRlllll       4      0       0      46        0.0%
BITBIGSFRllhllh      1      0       0      40        0.0%
BITBIGSFRllhlll      1      0       0      43        0.0%
BIGSFR               0      0       0     200        0.0%
BITSFR               0      0       0     200        0.0%
SFR                  0      0       0     200        0.0%
STACK                0      0       0       2        0.0%
NULL                 0      0       0       0        0.0%
ABS                  0      0     139      47        0.0%
DATA                 0      0     139       3        0.0%
CODE                 0      0       0       0        0.0%


Microchip Technology PIC18 Macro Assembler V2.45 build 20230818022343 
Symbol Table                                                                                   Tue Oct 08 12:45:10 2024

                            ___fldiv@aexp 0027                              ___fldiv@bexp 0026  
                            ___fldiv@sign 001F                           LED_toggle@F2915 00CE  
                      _Uart_ASYNC_RX_Init 249E                        _Uart_ASYNC_TX_Init 240E  
                                     l290 2602                                       l284 26A6  
                                     l296 2656                                       l651 2046  
                                     l663 2162                                       _PR2 0FCB  
                                     wreg 0FE8                 _RB5_InterruptHandler_High 0064  
                     ?_Uart_ASYNC_RX_Init 0001                       ?_Uart_ASYNC_TX_Init 0001  
                            ___fltol@exp1 000A                                      l1220 27F4  
                                    l1234 280E                                      l1180 2384  
                                    l1245 2742                                      l1261 150C  
                                    l1253 1042                                      l1270 249C  
                                    l1255 10F8                                      l1256 11AE  
                         __end_of_LED_off 2658                                      l1249 2780  
                                    l1257 1264                                      l1169 27C2  
                                    l1274 249C                                      l1258 131A  
                                    l1283 252C                                      l1259 13CE  
                                    l1287 252C                                      l5000 1CD8  
                                    l5010 1D42                                      l5002 1CDC  
                                    l1820 16B0                                      l5012 1D46  
                                    l5004 1CF6                                      l5100 1EC0  
                                    l5014 1D54                                      l5006 1D0C  
                                    l5110 1F08                                      l5102 1EC2  
                                    l5200 247E                                      l5016 1D5A  
                                    l5008 1D26                                      l5040 21CE  
                                    l5032 218E                                      l5112 1F0A  
                                    l5104 1EC6                                      l5210 24D0  
                                    l5202 2496                                      l1818 16FC  
                                    l5018 1D5C                                      l5050 21FE  
                                    l5042 21DC                                      l5034 21B8  
                                    l5026 2164                                      l5106 1EEA  
                                    l1835 1816                                      l1827 19CC  
                                    l1819 16EA                                      l1587 2268  
                                    l5220 250E                                      l5212 24D6  
                                    l5204 249E                                      l1844 18E6  
                                    l5060 2228                                      l5052 2208  
                                    l5036 21BA                                      l5028 217A  
                                    l5108 1EFA                                      l1845 18D4  
                                    l5222 2526                                      l5214 24EE  
                                    l5206 24B6                                      l5062 2238  
                                    l5038 21CA                                      l5070 1D6A  
                                    l5150 102E                                      l5216 24F0  
                                    l5208 24B8                                      l1872 1D66  
                                    l5064 2248                                      l5048 21F4  
                                    l1952 1E56                                      l5072 1D7A  
                                    l5160 11B4                                      l5152 1048  
                                    l1945 1DBE                                      l5218 2508  
                                    l1874 1BC6                                      l5066 2258  
                                    l5058 221C                                      l5090 1E40  
                                    l5082 1DF8                                      l5074 1D88  
                                    l5170 1372                                      l5162 1208  
                                    l5154 109C                                      l1883 1C0C  
                                    l4700 155C                                      l5092 1E4C  
                                    l5084 1E00                                      l1948 1F1A  
                                    l5076 1DCE                                      l5172 13D2  
                                    l5164 126A                                      l5156 10FE  
                                    l1885 1C84                                      l1877 1B8A  
                                    l7030 25C0                                      l5190 2440  
                                    l4710 158E                                      l4702 1564  
                                    l1886 1C72                                      l5094 1E88  
                                    l5086 1E0C                                      l5078 1DE4  
                                    l5174 1426                                      l5166 12BE  
                                    l5158 1152                                      l1959 1EB2  
                                    l7032 25C0                                      l5192 2446  
                                    l5184 240E                                      l4800 1766  
                                    l4720 15C4                                      l4712 1594  
                                    l4704 1574                                      l5096 1E94  
                                    l5088 1E3E                                      l5168 131E  
                                    l5176 1482                                      l7050 2634  
                                    l7042 2604                                      l7034 25D0  
                                    l5194 245E                                      l5186 2426  
                                    l4802 176A                                      l4810 178A  
                                    l4730 1600                                      l4722 15D4  
                                    l4714 15A2                                      l4706 157A  
                                    l5098 1EA2                                      l5178 14D6  
                                    l5370 27D8                                      l5362 27C4  
                                    l7052 2648                                      l7044 2614  
                                    l7036 25E0                                      l7028 25B0  
                                    l5196 2460                                      l5188 2428  
                                    l4812 17B0                                      l4820 1806  
                                    l4804 1778                                      l4740 161E  
                                    l4732 160E                                      l4724 15D6  
                                    l4716 15A4                                      l4708 158C  
                                    l4900 1A1A                                      l5372 27DA  
                                    l5364 27D4                                      l5540 2782  
                                    l7046 2614                                      l7038 25F4  
                                    l5198 2478                                      l4830 185A  
                                    l4822 182C                                      l4814 17E4  
                                    l4806 177A                                      l4750 1632  
                                    l4742 1622                                      l4734 1612  
                                    l4718 15B4                                      l4726 15DE  
                                    l4910 1A40                                      l4902 1A1C  
                                    l5374 27E2                                      l5366 27D4  
                                    l5550 2796                                      l5542 278E  
                                    l7048 2624                                      l4840 1884  
                                    l4832 1868                                      l4824 183C  
                                    l4816 17E6                                      l4808 1784  
                                    l4760 1646                                      l4752 1636  
                                    l4744 1626                                      l4736 1616  
                                    l4728 15EE                                      l4920 1A80  
                                    l4912 1A4E                                      l4904 1A24  
                                    l5376 27EA                                      l5368 27D6  
                                    l5560 27B2                                      l5552 2798  
                                    l5544 2790                                      l5570 273E  
                                    l4850 18B6                                      l4842 1894  
                                    l4834 186A                                      l4818 17F6  
                                    l4770 1698                                      l4762 164A  
                                    l4754 163A                                      l4746 162A  
                                    l4738 161A                                      l4690 1528  
                                    l4930 1AC0                                      l4922 1A82  
                                    l4914 1A50                                      l4906 1A34  
                                    l5378 27F2                                      l5562 27BA  
                                    l5554 279A                                      l5546 2792  
                                    l5564 27F6                                      l5572 2750  
                                    l4860 1910                                      l4852 18CC  
                                    l4836 1878                                      l4828 1850  
                                    l4844 1896                                      l4780 16DC  
                                    l4772 16A8                                      l4756 163E  
                                    l4748 162E                                      l4764 164E  
                                    l4692 152A                                      l4940 1AF0  
                                    l4932 1AC8                                      l4916 1A60  
                                    l4924 1A8A                                      l4908 1A3A  
                                    l5556 27A2                                      l5548 2794  
                                    l7500 237C                                      l5566 2804  
                                    l5574 2760                                      l4870 198C  
                                    l4862 194A                                      l4838 1880  
                                    l4846 18A4                                      l4782 16DE  
                                    l4774 16BE                                      l4766 1652  
                                    l4758 1642                                      l4694 153A  
                                    l4686 150E                                      l4950 1B2E  
                                    l4942 1AF0                                      l4934 1ACC  
                                    l4926 1A9A                                      l4918 1A70  
                                    l5558 27AA                                      l7510 23C8  
                                    l7502 238C                                      l6800 1F62  
                                    l5576 2762                                      l4880 19AC  
                                    l4872 1990                                      l4856 18F6  
                                    l4864 194C                                      l4848 18A8  
                                    l4792 172E                                      l4784 16E8  
                                    l4776 16CA                                      l4768 167C  
                                    l4696 154A                                      l4688 151A  
                                    l4960 1B7A                                      l4952 1B3E  
                                    l4928 1AB0                                      l7520 23FE  
                                    l7512 23DA                                      l7504 239E  
                                    l6802 1F66                                      l6810 2010  
                                    l4882 19BA                                      l4874 199E  
                                    l4866 195C                                      l4858 1902  
                                    l4794 173E                                      l4786 170A  
                                    l4778 16CE                                      l4698 155A  
                                    l4970 1BC4                                      l4962 1B88  
                                    l4954 1B4E                                      l4946 1B04  
                                    l4938 1AE0                                      l4890 19DA  
                                    l7514 23E2                                      l7506 23A6  
                                    l6804 1FBC                                      l7540 214C  
                                    l6820 205A                                      l4884 19BC  
                                    l4876 19A4                                      l4868 196C  
                                    l4796 174C                                      l4788 171A  
                                    l4980 1C0A                                      l4972 1BD6  
                                    l4964 1B94                                      l4956 1B56  
                                    l4948 1B1E                                      l4892 19E8  
                                    l7508 23AE                                      l7542 2030  
                                    l6806 200C                                      l6822 2072  
                                    l4878 19A6                                      l4798 175A  
                                    l4990 1C6A                                      l4974 1BEC  
                                    l4982 1C1C                                      l4966 1BB2  
                                    l4958 1B66                                      l4894 19EA  
                                    l7518 23EE                                      l6832 2138  
                                    l6824 208E                                      l6816 2048  
                                    l4984 1C2A                                      l4976 1BF2  
                                    l4968 1BB4                                      l4896 19FA  
                                    l4888 19CE                                      l6930 2678  
                                    l6826 2092                                      l6818 2048  
                                    l4994 1C94                                      l4986 1C2E  
                                    l4978 1BFC                                      l4898 1A0A  
                                    l7538 14A0                                      l6932 2688  
                                    l6924 2658                                      l6828 20E8  
                                    l4996 1CA0                                      l4988 1C3C  
                                    l6934 269C                                      l6926 2668  
                                    l4998 1CAE                                      l6792 1F1C  
                                    l6928 2668                                      l7496 2370  
                                    l6794 1F1C                                      l7498 2374  
                                    l6796 1F2E                                      l6798 1F46  
                                    STR_1 1029                                      STR_4 100F  
                                    STR_5 101D                                      STR_6 1001  
                                    _LATA 0F89                                      _LATB 0F8A  
                                    _LATC 0F8B                                      u4000 1C2A  
                                    _LATD 0F8C                                      u4001 1C26  
                                    _LATE 0F8D                                      u4010 1C3C  
                                    u4011 1C38                                      u4020 1C6A  
                                    u4100 21AE                                      u4021 1C66  
                                    u4030 1C80                                      u4110 21DC  
                                    u4031 1C7C                                      u4111 21D8  
                                    u4040 1C94                                      u4120 21F0  
                                    u4200 1E84                                      u4041 1C90  
                                    u4121 21EC                                      u4105 21A4  
                                    u4201 1E80                                      u4050 1CAE  
                                    u4130 2218                                      u4210 1EA2  
                                    u4051 1CAA                                      u4131 2214  
                                    u4211 1E9E                                      u4300 2426  
                                    u3500 158C                                      u4060 1CF6  
                                    u4140 2238                                      u4220 1EB2  
                                    u4301 2422                                      u3501 1588  
                                    u4061 1CF2                                      u4141 2234  
                                    u4221 1EAE                                      u4310 2440  
                                    u3510 15A2                                      u4070 1D26  
                                    u4150 2248                                      u4230 1EC0  
                                    u4311 243C                                      u3511 159E  
                                    u4071 1D22                                      u4151 2244  
                                    u4231 1EBC                                      u4320 245E  
                                    u3600 16DC                                      u3520 15B4  
                                    u4080 1D54                                      u4240 1EFA  
                                    u4160 1D7A                                      u4321 245A  
                                    u3601 16D8                                      u3521 15B0  
                                    u4081 1D50                                      u4241 1EF6  
                                    u4161 1D76                                      u4330 2478  
                                    u3610 16FC                                      u3530 15C4  
                                    u4090 217A                                      u4250 1F08  
                                    u4170 1D88                                      u4331 2474  
                                    u3611 16F8                                      u3531 15C0  
                                    u4091 2176                                      u4251 1F04  
                                    u4171 1D84                                      u4340 2496  
                                    u3700 183C                                      u3620 170A  
                                    u3540 1600                                      u4180 1DE4  
                                    u4341 2492                                      u3701 1838  
                                    u3621 1706                                      u3541 15FC  
                                    u4181 1DE0                                      u4350 24B6  
                                    u3710 1868                                      u3630 171A  
                                    u3550 160E                                      u3470 1528  
                                    u4190 1E3A                                      u4351 24B2  
                                    u3711 1864                                      u3631 1716  
                                    u3551 160A                                      u3471 1524  
                                    u4191 1E36                                      u4360 24D0  
                                    u3800 194A                                      u3720 1878  
                                    u3640 174C                                      u3560 167C  
                                    u3480 153A                                      u4361 24CC  
                                    u3801 1946                                      u3721 1874  
                                    u3641 1748                                      u3561 1678  
                                    u3481 1536                                      u4370 24EE  
                                    u3810 195C                                      u3730 1894  
                                    u3650 175A                                      u3570 1694  
                                    u3490 154A                                      u4371 24EA  
                                    u3811 1958                                      u3731 1890  
                                    u3651 1756                                      u3571 168E  
                                    u3491 1546                                      u4700 2804  
                                    u4380 2508                                      u3820 196C  
                                    u3740 18A4                                      u3660 1778  
                                    u3580 1696                                      u3900 1A60  
                                    u4701 2800                                      u4381 2504  
                                    u3821 1968                                      u3741 18A0  
                                    u3661 1774                                      u3901 1A5C  
                                    u4710 2750                                      u4390 2526  
                                    u3830 198C                                      u3750 18B6  
                                    u3670 17B0                                      u3590 16BE  
                                    u3910 1A70                                      u4711 274C  
                                    u4391 2522                                      u3831 1988  
                                    u3751 18B2                                      u3671 17AC  
                                    u3591 16BA                                      u3911 1A6C  
                                    u7007 23B8                                      u6304 1F80  
                                    u6320 205A                                      u4720 2780  
                                    u3840 199E                                      u3760 18CC  
                                    u3680 17F6                                      u3920 1AB0  
                                    u6305 1F7C                                      u6321 2056  
                                    u4721 277C                                      u3841 199A  
                                    u3761 18C8                                      u3681 17F2  
                                    u3921 1AAC                                      u6314 1FD6  
                                    u6330 2072                                      u3850 19BA  
                                    u3770 18E2                                      u3690 182C  
                                    u3930 1AF0                                      u4570 27D4  
                                    u6315 1FD2                                      u6331 206E  
                                    u3851 19B6                                      u3771 18DE  
                                    u3691 1828                                      u3931 1AEC  
                                    u4571 27D0                                      u6340 208E  
                                    u3780 18F6                                      u3940 1B66  
                                    u3860 19E8                                      u6341 208A  
                                    u3781 18F2                                      u3941 1B62  
                                    u3861 19E4                                      u6270 1F2E  
                                    u6430 2668                                      u3790 1910  
                                    u3950 1B88                                      u3870 19FA  
                                    u6271 1F2A                                      u6431 2664  
                                    u3791 190C                                      u3951 1B84  
                                    u3871 19F6                                      u6280 1F46  
                                    u3960 1BB2                                      u3880 1A0A  
                                    u6281 1F42                                      u3961 1BAE  
                                    u3881 1A06                                      u6290 1F62  
                                    u6354 20AC                                      u6530 25C0  
                                    u3970 1BD6                                      u3890 1A4E  
                                    u6291 1F5E                                      u6355 20A8  
                                    u6531 25BC                                      u3971 1BD2  
                                    u3891 1A4A                                      u6364 2102  
                                    u6540 2614                                      u3980 1BEC  
                                    u6365 20FE                                      u6541 2610  
                                    u3981 1BE8                                      u3990 1C0A  
                                    u3991 1C06                                      u6980 239E  
                                    u6981 239A                                      u6990 23DA  
                                    u6991 23D6                                      _TMR2 0FCC  
                                    _lcd1 0130                                      _data 0077  
                                    _led1 007C                                      _led2 007A  
                                    _main 2370                  _RB4_InterruptHandler_Low 0066  
                                    fsr2h 0FDA                                      indf2 0FDF  
                                    fsr1l 0FE1                                      fsr2l 0FD9  
                                    btemp 007E                  _RB7_InterruptHandler_Low 00F0  
                                    prodl 0FF3                                      start 000E  
                         ___fldiv@new_exp 0020                      ??_Uart_ASYNC_RX_Init 0002  
                    ??_Uart_ASYNC_TX_Init 0002                              ___param_bank 0000  
               _seg_common_cathode_values 009E                 gpio_write_pin_logic@logic 0003  
                        __end_of_INT0_ISR 2852                          __end_of_INT1_ISR 284E  
                        __end_of_INT2_ISR 284A                          __end_of_LED_init 26A8  
                           ___fltol@sign1 0009                           __end_of_adc_ISR 2846  
                         __end_of___fladd 19CE                                     ?_main 0001  
                         __end_of___fldiv 1D68                                     _EEADR 0FA9  
                         __end_of___fltol 226A                                     i2l434 2844  
                                   i2l845 2850                                     i2l853 2848  
                                   i2l849 284C                                     i2l948 236C  
                                   _RCREG 0FAE                                     _TMR0H 0FD7  
                                   _TMR1H 0FCF                                     _TMR0L 0FD6  
                                   _TMR1L 0FCE                                     _TMR3H 0FB3  
                                   _TMR3L 0FB2                                     _SPBRG 0FAF  
                                   _PORTA 0F80                                     _PORTB 0F81  
                                   _PORTC 0F82                                     _PORTD 0F83  
                                   _PORTE 0F84                                     _TRISA 0F92  
                                   _TRISB 0F93                                     _TRISC 0F94  
                                   _TRISD 0F95                                     _TRISE 0F96  
                                   _TXREG 0FAD          __end_of_Uart_ReadByteNonBlocking 2810  
                    _gpio_write_pin_logic 2048                                     tablat 0FF5  
                           BUZ_init@F2898 00E6                                     ttemp5 007F  
                                   ttemp6 0082                                     ttemp7 0086  
                                   status 0FD8                                     wtemp8 007F  
                         __initialization 252E                               LED_on@F2905 00D6  
                            __end_of_main 240E                   _timer1_InterruptHandler 00EC  
                                  ??_main 0054                             __activetblptr 0003  
                  _gpio_set_pin_direction 1F1C                                 ??_LED_off 000A  
                             LED_init@led 0008                                    _ADRESH 0FC4  
                                  _EEADRH 0FAA                                    _ADRESL 0FC3  
                                  _EEDATA 0FA8                                    _CCPR1H 0FBF  
                                  _CCPR2H 0FBC                                    _CCPR1L 0FBE  
                                  _CCPR2L 0FBB                                    _EECON2 0FA7  
                _Timer2_Interrupt_Handler 0058                     ?_gpio_write_pin_logic 0001  
                                  i2l1010 2832                                    i2l1150 281A  
                                  i2l1064 2826                                    i2l1098 283A  
                                  i2l2860 284A                                    i2l2852 2842  
                                  i2l2856 284E                                    i2l2864 2846  
                                  i2l5520 282E                                    i2l6320 228C  
                                  i2l6330 22C8                                    i2l6322 229A  
                                  i2l6314 226C                                    i2l5516 2828  
                                  i2l5524 281C                                    i2l2884 2834  
                                  i2l5532 2810                                    i2l6340 22FA  
                                  i2l6332 22CC                                    i2l6324 22A8  
                                  i2l6316 227A                                    i2l5518 282A  
                                  i2l5526 281E                                    i2l5534 2812  
                                  i2l6350 232C                                    i2l6342 2308  
                                  i2l6334 22DA                                    i2l6326 22AC  
                                  i2l6318 2288                                    i2l5528 2822  
                                  i2l5536 2816                                    i2l6360 2368  
                                  i2l6352 233A                                    i2l6344 230C  
                                  i2l6336 22E8                                    i2l6328 22BA  
                                  i2l6354 2348                                    i2l6346 231A  
                                  i2l6338 22EC                                    i2l6356 234C  
                                  i2l6348 2328                                    i2l6358 235A  
                                  _BUZZER 00B2                                    _LED_on 25B0  
                                  _SPBRGH 0FB0                          __end_of___xxtofl 1F1C  
                              _Timer0_ISR 2828                                _Timer1_ISR 281C  
                              _Timer2_ISR 2834                                 ??_adc_ISR 0001  
                               ??___fladd 0030                                 ??___fldiv 0017  
                               ??___fltol 0005                                    _manage 0008  
                                  clear_0 2594                                    clear_1 25A0  
               ?_Uart_WriteStringBlocking 0001                                    isa$std 0001  
                          _Timer2_preload 0076                              __pdataCOMRAM 0078  
                            __mediumconst 0000                                    tblptrh 0FF7  
                                  tblptrl 0FF6                                    tblptru 0FF8  
                _Uart_ReadByteNonBlocking 27F6                              ___xxtofl@arg 000B  
                            ___xxtofl@exp 000A                              ___xxtofl@val 0001  
                              __accesstop 0080                   __end_of__initialization 25A6  
                               ?_INT0_ISR 0001                                 ?_INT1_ISR 0001  
                               ?_INT2_ISR 0001                               BUZ_on@F2903 00E2  
            Uart_ReadByteNonBlocking@data 0001                             ___rparam_used 0001  
                               ?_LED_init 0008                                ___fltol@f1 0001  
                          __pcstackCOMRAM 0001                              __pidataBANK0 26A8  
                            __pidataBANK1 26F6                            LED_off@led_obj 000A  
                               LED_on@led 0009                              LED_off@F2910 00D2  
                  ??_gpio_write_pin_logic 0004                                __pbssBANK0 00CE  
                                 ?_LED_on 0009                     _INT0_InterruptHandler 006E  
                              ??_INT0_ISR 0001                                ??_INT1_ISR 0001  
                              ??_INT2_ISR 0001                         __end_of_Uart_Init 27F6  
                              ??_LED_init 0009                               ?_Timer0_ISR 0001  
                             ?_Timer1_ISR 0001                               ?_Timer2_ISR 0001  
            ??_Uart_Baud_Rate_Calculation 0039                                   ?_manage 0001  
                           _LAT_registers 008A                                 ?___xxtofl 0001  
                                 _LED_off 2604                             _keypad_values 0100  
               _RB6_InterruptHandler_High 0060           CCP_Compare_Mode_Set_Value@F2958 0070  
                          _tris_registers 0094                  _RB6_InterruptHandler_Low 005E  
                    _ADC_InterruptHandler 0074                                   __Hparam 0000  
                                 __Lparam 0000                                   _adc_ISR 2842  
                                 ___fladd 150E                                   ___fldiv 19CE  
                                 ___fltol 2164                              __psmallconst 1000  
                 ?_gpio_set_pin_direction 0001                                   __pcinit 252E  
                                 __ramtop 1000                                   __ptext0 2370  
                                 __ptext1 2782                                   __ptext2 27C4  
                                 __ptext3 102E                                   __ptext4 1D68  
                                 __ptext5 2164                                   __ptext6 19CE  
                                 __ptext7 150E                                   __ptext8 240E  
                                 __ptext9 249E                                 _T0CONbits 0FD5  
                               _T1CONbits 0FCD                                 _T2CONbits 0FCA  
                                 _keypad1 0110                                ??___xxtofl 0005  
                               _T3CONbits 0FB1  Uart_Baud_Rate_Calculation@Baud_Rate_Temp 003B  
                          __pintcode_body 226A                      end_of_initialization 25A6  
                 _seg_common_anode_values 00A8                                   int_func 226A  
        __end_of_Uart_WriteStringBlocking 2782                         Uart_Init@uart_obj 0043  
                       __end_of_uart_init 27C4                                _timer3_ISR 2810  
                               _RCSTAbits 0FAB                                   postdec1 0FE5  
                                 postdec2 0FDD                                   postinc0 0FEE  
                                 postinc2 0FDE            __end_of_gpio_set_pin_direction 2048  
                   _INT1_InterruptHandler 006C                ??_Uart_ReadByteNonBlocking 0002  
                             ___fladd@grs 0037                 Uart_ASYNC_TX_Init@_eusart 0001  
                           ___xxtofl@sign 0009                                 _TRISCbits 0F94  
                             ___fldiv@grs 0022                               ___fldiv@rem 001B  
                             _CCP1CONbits 0FBD                            __end_of_LED_on 2604  
                             _CCP2CONbits 0FBA                                 _TXSTAbits 0FAC  
      __end_of_Uart_Baud_Rate_Calculation 150E                _Uart_Baud_Rate_Calculation 102E  
                            BUZ_off@F2908 00DE                               _BAUDCONbits 0FB8  
                           __pidataCOMRAM 283C                            _timer0_preload 005C  
                          __end_of_manage 2370                            _timer1_preload 005A  
                     start_initialization 252E         Uart_Baud_Rate_Calculation@_eusart 0038  
                              LED_off@led 0009                                  ??_LED_on 000A  
                            ??_Timer0_ISR 0001                              ??_Timer1_ISR 0001  
                            ??_Timer2_ISR 0001                                 _Uart_Init 27C4  
                             ?_timer3_ISR 0001                  _Uart_WriteStringBlocking 273E  
                             __pdataBANK0 0080                               __pdataBANK1 0100  
                                ??_manage 0001                                 ___fladd@a 002C  
                               ___fladd@b 0028                                 ___fldiv@a 0013  
                               ___fldiv@b 000F                               __pbssCOMRAM 0056  
                                ?_LED_off 0009                             LED_on@led_obj 000A  
                      __end_of_Timer0_ISR 2834                        __end_of_Timer1_ISR 2828  
                      __end_of_Timer2_ISR 283C                             LED_init@F2900 00DA  
                         LED_init@led_obj 0009                     _INT2_InterruptHandler 006A  
                              ?_Uart_Init 0043                                 __pintcode 0008  
                                ?_adc_ISR 0001                                  ?___fladd 0028  
                                ?___fldiv 000F                                  ?___fltol 0001  
                             __smallconst 1000                 _RB4_InterruptHandler_High 0068  
               _RB7_InterruptHandler_High 00F2           _Uart_Baud_Rate_Calculation$4650 003F  
                                _INT0_ISR 284E                                  _INT1_ISR 284A  
                                _INT2_ISR 2846                  _RB5_InterruptHandler_Low 0062  
                                _RB4_Flag 0079                                  _RB5_Flag 0078  
              __end_of_Uart_ASYNC_RX_Init 252E                                  _LED_init 2658  
                                _PIE1bits 0F9D                                  _PIE2bits 0FA0  
              __end_of_Uart_ASYNC_TX_Init 249E                                  _PIR1bits 0F9E  
                                _PIR2bits 0FA1                                  i2u560_40 2288  
                                i2u560_41 2284                                  i2u561_40 229A  
                                i2u561_41 2296                                  i2u570_40 2328  
                                i2u562_40 22A8                                  i2u570_41 2324  
                                i2u562_41 22A4                                  i2u571_40 233A  
                                i2u563_40 22BA                                  i2u571_41 2336  
                                i2u563_41 22B6                                  i2u572_40 2348  
                                i2u564_40 22C8                                  i2u572_41 2344  
                                i2u564_41 22C4                                  i2u573_40 235A  
                                i2u565_40 22DA                                  i2u573_41 2356  
                                i2u565_41 22D6                                  i2u574_40 2368  
                                i2u566_40 22E8                                  i2u574_41 2364  
                                i2u566_41 22E4                                  i2u567_40 22FA  
                                i2u559_40 227A                                  i2u567_41 22F6  
                                i2u559_41 2276                                  i2u568_40 2308  
                                i2u568_41 2304                                  i2u569_40 231A  
                                i2u569_41 2316                                 _uart_init 2782  
                 _Timer3_InterruptHandler 00EA                                _ADCON0bits 0FC2  
                              _ADCON1bits 0FC1                                _ADCON2bits 0FC0  
                               _start_btn 00C8                               _INTCON2bits 0FF1  
                             _INTCON3bits 0FF0                                 copy_data0 2542  
                               copy_data1 2562                                 copy_data2 2582  
                             _door_sensor 00C2          gpio_set_pin_direction@pin_config 0001  
                              _EECON1bits 0FA6                                  __Hrparam 0000  
                             ??_Uart_Init 0044                                  __Lrparam 0000  
             ?_Uart_Baud_Rate_Calculation 0038                                ?_uart_init 0001  
                   _CCP1_InterruptHandler 0072              Uart_WriteStringBlocking@data 0001  
                           _preload_value 0056                                  ___xxtofl 1D68  
                          _PORT_registers 0080                                  __ptext10 273E  
                                __ptext11 27F6                                  __ptext20 2834  
                                __ptext12 25B0                                  __ptext21 281C  
                                __ptext13 2604                                  __ptext22 2828  
                                __ptext14 2048                                  __ptext23 2846  
                                __ptext15 2658                                  __ptext24 284A  
                                __ptext16 1F1C                                  __ptext25 284E  
                                __ptext18 2810                                  __ptext19 2842  
              ??_Uart_WriteStringBlocking 0002                 ?_Uart_ReadByteNonBlocking 0001  
                         _Microwave_motor 00B4                              ??_timer3_ISR 0001  
                                isa$xinst 0000                                  int$flags 007E  
                           _weight_sensor 00BC                                _INTCONbits 0FF2  
                      __end_of_timer3_ISR 281C                                  intlevel2 0000  
                ??_gpio_set_pin_direction 0003            gpio_write_pin_logic@pin_config 0001  
                             ??_uart_init 0044              __end_of_gpio_write_pin_logic 2164  
               Uart_ASYNC_RX_Init@_eusart 0001                              uart_init@obj 0044  
                           ___fladd@signs 0034                   _timer0_InterruptHandler 00EE  
                            ___fladd@aexp 0035                              ___fladd@bexp 0036  
